ARM Linker, 5.03 [Build 76] [MDK-ARM Professional]

==============================================================================

Section Cross References

    system_stm32f4xx.o(.text) refers to system_stm32f4xx.o(.data) for SystemCoreClock
    misc.o(.text) refers to startup.o(.text) for assert_failed
    stm32f4xx_adc.o(.text) refers to stm32f4xx_rcc.o(.text) for RCC_APB2PeriphResetCmd
    stm32f4xx_adc.o(.text) refers to startup.o(.text) for assert_failed
    stm32f4xx_adc.o(.text) refers to stm32f4xx_adc.o(.constdata) for .constdata
    stm32f4xx_can.o(.text) refers to startup.o(.text) for assert_failed
    stm32f4xx_can.o(.text) refers to stm32f4xx_rcc.o(.text) for RCC_APB1PeriphResetCmd
    stm32f4xx_can.o(.text) refers to stm32f4xx_can.o(.constdata) for .constdata
    stm32f4xx_cryp.o(.text) refers to stm32f4xx_rcc.o(.text) for RCC_AHB2PeriphResetCmd
    stm32f4xx_cryp.o(.text) refers to startup.o(.text) for assert_failed
    stm32f4xx_cryp.o(.text) refers to stm32f4xx_cryp.o(.constdata) for .constdata
    stm32f4xx_cryp_aes.o(.text) refers to stm32f4xx_cryp.o(.text) for CRYP_KeyStructInit
    stm32f4xx_cryp_des.o(.text) refers to stm32f4xx_cryp.o(.text) for CRYP_KeyStructInit
    stm32f4xx_cryp_tdes.o(.text) refers to stm32f4xx_cryp.o(.text) for CRYP_KeyStructInit
    stm32f4xx_dac.o(.text) refers to stm32f4xx_rcc.o(.text) for RCC_APB1PeriphResetCmd
    stm32f4xx_dac.o(.text) refers to startup.o(.text) for assert_failed
    stm32f4xx_dac.o(.text) refers to stm32f4xx_dac.o(.constdata) for .constdata
    stm32f4xx_dbgmcu.o(.text) refers to startup.o(.text) for assert_failed
    stm32f4xx_dbgmcu.o(.text) refers to stm32f4xx_dbgmcu.o(.constdata) for .constdata
    stm32f4xx_dcmi.o(.text) refers to startup.o(.text) for assert_failed
    stm32f4xx_dcmi.o(.text) refers to stm32f4xx_dcmi.o(.constdata) for .constdata
    stm32f4xx_dma.o(.text) refers to startup.o(.text) for assert_failed
    stm32f4xx_dma.o(.text) refers to stm32f4xx_dma.o(.constdata) for .constdata
    stm32f4xx_exti.o(.text) refers to startup.o(.text) for assert_failed
    stm32f4xx_exti.o(.text) refers to stm32f4xx_exti.o(.constdata) for .constdata
    stm32f4xx_flash.o(.text) refers to startup.o(.text) for assert_failed
    stm32f4xx_flash.o(.text) refers to stm32f4xx_flash.o(.constdata) for .constdata
    stm32f4xx_fsmc.o(.text) refers to startup.o(.text) for assert_failed
    stm32f4xx_fsmc.o(.text) refers to stm32f4xx_fsmc.o(.constdata) for .constdata
    stm32f4xx_gpio.o(.text) refers to startup.o(.text) for assert_failed
    stm32f4xx_gpio.o(.text) refers to stm32f4xx_rcc.o(.text) for RCC_AHB1PeriphResetCmd
    stm32f4xx_gpio.o(.text) refers to stm32f4xx_gpio.o(.constdata) for .constdata
    stm32f4xx_hash.o(.text) refers to stm32f4xx_rcc.o(.text) for RCC_AHB2PeriphResetCmd
    stm32f4xx_hash.o(.text) refers to startup.o(.text) for assert_failed
    stm32f4xx_hash.o(.text) refers to stm32f4xx_hash.o(.constdata) for .constdata
    stm32f4xx_hash_md5.o(.text) refers to stm32f4xx_hash.o(.text) for HASH_DeInit
    stm32f4xx_hash_sha1.o(.text) refers to stm32f4xx_hash.o(.text) for HASH_DeInit
    stm32f4xx_i2c.o(.text) refers to startup.o(.text) for assert_failed
    stm32f4xx_i2c.o(.text) refers to stm32f4xx_rcc.o(.text) for RCC_APB1PeriphResetCmd
    stm32f4xx_i2c.o(.text) refers to stm32f4xx_i2c.o(.constdata) for .constdata
    stm32f4xx_iwdg.o(.text) refers to startup.o(.text) for assert_failed
    stm32f4xx_iwdg.o(.text) refers to stm32f4xx_iwdg.o(.constdata) for .constdata
    stm32f4xx_pwr.o(.text) refers to stm32f4xx_rcc.o(.text) for RCC_APB1PeriphResetCmd
    stm32f4xx_pwr.o(.text) refers to startup.o(.text) for assert_failed
    stm32f4xx_pwr.o(.text) refers to stm32f4xx_pwr.o(.constdata) for .constdata
    stm32f4xx_rcc.o(.text) refers to startup.o(.text) for assert_failed
    stm32f4xx_rcc.o(.text) refers to stm32f4xx_rcc.o(.constdata) for .constdata
    stm32f4xx_rcc.o(.text) refers to stm32f4xx_rcc.o(.data) for APBAHBPrescTable
    stm32f4xx_rng.o(.text) refers to stm32f4xx_rcc.o(.text) for RCC_AHB2PeriphResetCmd
    stm32f4xx_rng.o(.text) refers to startup.o(.text) for assert_failed
    stm32f4xx_rng.o(.text) refers to stm32f4xx_rng.o(.constdata) for .constdata
    stm32f4xx_rtc.o(.text) refers to startup.o(.text) for assert_failed
    stm32f4xx_rtc.o(.text) refers to stm32f4xx_rtc.o(.constdata) for .constdata
    stm32f4xx_sdio.o(.text) refers to stm32f4xx_rcc.o(.text) for RCC_APB2PeriphResetCmd
    stm32f4xx_sdio.o(.text) refers to startup.o(.text) for assert_failed
    stm32f4xx_sdio.o(.text) refers to stm32f4xx_sdio.o(.constdata) for .constdata
    stm32f4xx_spi.o(.text) refers to startup.o(.text) for assert_failed
    stm32f4xx_spi.o(.text) refers to stm32f4xx_rcc.o(.text) for RCC_APB2PeriphResetCmd
    stm32f4xx_spi.o(.text) refers to stm32f4xx_spi.o(.constdata) for .constdata
    stm32f4xx_syscfg.o(.text) refers to stm32f4xx_rcc.o(.text) for RCC_APB2PeriphResetCmd
    stm32f4xx_syscfg.o(.text) refers to startup.o(.text) for assert_failed
    stm32f4xx_syscfg.o(.text) refers to stm32f4xx_syscfg.o(.constdata) for .constdata
    stm32f4xx_tim.o(.text) refers to startup.o(.text) for assert_failed
    stm32f4xx_tim.o(.text) refers to stm32f4xx_rcc.o(.text) for RCC_APB2PeriphResetCmd
    stm32f4xx_tim.o(.text) refers to stm32f4xx_tim.o(.constdata) for .constdata
    stm32f4xx_usart.o(.text) refers to startup.o(.text) for assert_failed
    stm32f4xx_usart.o(.text) refers to stm32f4xx_rcc.o(.text) for RCC_APB2PeriphResetCmd
    stm32f4xx_usart.o(.text) refers to stm32f4xx_usart.o(.constdata) for .constdata
    stm32f4xx_wwdg.o(.text) refers to stm32f4xx_rcc.o(.text) for RCC_APB1PeriphResetCmd
    stm32f4xx_wwdg.o(.text) refers to startup.o(.text) for assert_failed
    stm32f4xx_wwdg.o(.text) refers to stm32f4xx_wwdg.o(.constdata) for .constdata
    startup_stm32f4xx.o(STACK) refers (Special) to heapauxi.o(.text) for __use_two_region_memory
    startup_stm32f4xx.o(HEAP) refers (Special) to heapauxi.o(.text) for __use_two_region_memory
    startup_stm32f4xx.o(RESET) refers (Special) to heapauxi.o(.text) for __use_two_region_memory
    startup_stm32f4xx.o(RESET) refers to startup_stm32f4xx.o(STACK) for __initial_sp
    startup_stm32f4xx.o(RESET) refers to startup_stm32f4xx.o(.text) for Reset_Handler
    startup_stm32f4xx.o(RESET) refers to stm32f4xx_it.o(.text) for NMI_Handler
    startup_stm32f4xx.o(RESET) refers to context_rvds.o(.text) for HardFault_Handler
    startup_stm32f4xx.o(RESET) refers to board.o(.text) for SysTick_Handler
    startup_stm32f4xx.o(RESET) refers to usart.o(.text) for USART1_IRQHandler
    startup_stm32f4xx.o(RESET) refers to stm32f4xx_sd.o(.text) for SDIO_IRQHandler
    startup_stm32f4xx.o(RESET) refers to stm32f4xx_eth.o(.text) for ETH_IRQHandler
    startup_stm32f4xx.o(.text) refers (Special) to heapauxi.o(.text) for __use_two_region_memory
    startup_stm32f4xx.o(.text) refers to system_stm32f4xx.o(.text) for SystemInit
    startup_stm32f4xx.o(.text) refers to __main.o(!!!main) for __main
    startup_stm32f4xx.o(.text) refers to startup_stm32f4xx.o(HEAP) for Heap_Mem
    startup_stm32f4xx.o(.text) refers to startup_stm32f4xx.o(STACK) for Stack_Mem
    board.o(.text) refers to misc.o(.text) for NVIC_SetVectorTable
    board.o(.text) refers to irq.o(.text) for rt_interrupt_enter
    board.o(.text) refers to clock.o(.text) for rt_tick_increase
    board.o(.text) refers to stm32f4xx_rcc.o(.text) for RCC_AHB1PeriphClockCmd
    board.o(.text) refers to stm32f4xx_gpio.o(.text) for GPIO_PinAFConfig
    board.o(.text) refers to usart.o(.text) for rt_hw_usart_init
    board.o(.text) refers to kservice.o(.text) for rt_console_set_device
    board.o(.text) refers to system_stm32f4xx.o(.data) for SystemCoreClock
    board.o(FSymTab) refers to board.o(.constdata) for __fsym_reset_name
    board.o(FSymTab) refers to board.o(.text) for reset
    platform.o(.text) refers to mmcsd_core.o(.text) for rt_mmcsd_core_init
    platform.o(.text) refers to block_dev.o(.text) for rt_mmcsd_blk_init
    platform.o(.text) refers to stm32f4xx_sd.o(.text) for stm32f4xx_sdio_init
    platform.o(.text) refers to thread.o(.text) for rt_thread_delay
    platform.o(.text) refers to device.o(.text) for rt_device_init_all
    usart.o(.text) refers to kservice.o(.text) for rt_kprintf
    usart.o(.text) refers to stm32f4xx_usart.o(.text) for USART_Init
    usart.o(.text) refers to irq.o(.text) for rt_interrupt_enter
    usart.o(.text) refers to serial.o(.text) for rt_hw_serial_isr
    usart.o(.text) refers to stm32f4xx_rcc.o(.text) for RCC_AHB1PeriphClockCmd
    usart.o(.text) refers to stm32f4xx_gpio.o(.text) for GPIO_Init
    usart.o(.text) refers to misc.o(.text) for NVIC_Init
    usart.o(.text) refers to usart.o(.constdata) for __FUNCTION__
    usart.o(.text) refers to usart.o(.data) for uart1
    usart.o(.text) refers to usart.o(.bss) for serial1
    usart.o(.constdata) refers to usart.o(.text) for stm32_configure
    ext_sram.o(.text) refers to stm32f4xx_fsmc.o(.text) for FSMC_NORSRAMStructInit
    stm32f4xx_it.o(.text) refers to stm32f4xx_exti.o(.text) for EXTI_GetITStatus
    stm32f4xx_exit.o(.text) refers to stm32f4xx_rcc.o(.text) for RCC_AHB1PeriphClockCmd
    stm32f4xx_exit.o(.text) refers to stm32f4xx_gpio.o(.text) for GPIO_Init
    stm32f4xx_exit.o(.text) refers to stm32f4xx_syscfg.o(.text) for SYSCFG_EXTILineConfig
    stm32f4xx_exit.o(.text) refers to stm32f4xx_exti.o(.text) for EXTI_Init
    stm32f4xx_exit.o(.text) refers to misc.o(.text) for NVIC_Init
    stm32f4xx_exit.o(.text) refers to ipc.o(.text) for rt_event_send
    stm32f4xx_exit.o(.text) refers to kservice.o(.text) for rt_kprintf
    stm32f4xx_exit.o(.text) refers to thread.o(.text) for rt_thread_delay
    stm32f4xx_exit.o(.text) refers to stm32f4xx_exit.o(.data) for s_KeyCode
    stm32f4xx_exit.o(.text) refers to exit.o(.bss) for event
    stm32f4xx_sd.o(.text) refers to stm32f4xx_sdio.o(.text) for SDIO_ClockCmd
    stm32f4xx_sd.o(.text) refers to stm32f4xx_rcc.o(.text) for RCC_APB2PeriphClockCmd
    stm32f4xx_sd.o(.text) refers to stm32f4xx_gpio.o(.text) for GPIO_PinAFConfig
    stm32f4xx_sd.o(.text) refers to stm32f4xx_dma.o(.text) for DMA_ClearFlag
    stm32f4xx_sd.o(.text) refers to mmcsd_core.o(.text) for mmcsd_req_complete
    stm32f4xx_sd.o(.text) refers to stm32f4xx_sd.o(.bss) for SDIO_CmdInitStructure
    stm32f4xx_sd.o(.text) refers to kservice.o(.text) for rt_kprintf
    stm32f4xx_sd.o(.text) refers to sdio.o(.text) for sdio_irq_wakeup
    stm32f4xx_sd.o(.text) refers to mem.o(.text) for rt_malloc
    stm32f4xx_sd.o(.text) refers to misc.o(.text) for NVIC_Init
    stm32f4xx_sd.o(.text) refers to irq.o(.text) for rt_interrupt_enter
    stm32f4xx_sd.o(.text) refers to stm32f4xx_sd.o(.data) for stm32f4_sdio
    stm32f4xx_sd.o(.text) refers to stm32f4xx_sd.o(.constdata) for ops
    stm32f4xx_sd.o(.constdata) refers to stm32f4xx_sd.o(.text) for stm32f4xx_sdio_request
    stm32f4xx_eth.o(.text) refers to stm32f4xx_rcc.o(.text) for RCC_AHB1PeriphResetCmd
    stm32f4xx_eth.o(.text) refers to startup.o(.text) for assert_failed
    stm32f4xx_eth.o(.text) refers to stm32f4xx_eth.o(.data) for DMATxDescToSet
    stm32f4xx_eth.o(.text) refers to irq.o(.text) for rt_interrupt_enter
    stm32f4xx_eth.o(.text) refers to ipc.o(.text) for rt_sem_release
    stm32f4xx_eth.o(.text) refers to ethernetif.o(.text) for eth_device_ready
    stm32f4xx_eth.o(.text) refers to stm32f4xx_syscfg.o(.text) for SYSCFG_ETH_MediaInterfaceConfig
    stm32f4xx_eth.o(.text) refers to kservice.o(.text) for rt_set_errno
    stm32f4xx_eth.o(.text) refers to context_rvds.o(.text) for rt_hw_interrupt_disable
    stm32f4xx_eth.o(.text) refers to rt_memcpy_v6.o(.text) for __aeabi_memcpy
    stm32f4xx_eth.o(.text) refers to def.o(.text) for lwip_htons
    stm32f4xx_eth.o(.text) refers to stm32f4xx_eth.o(.bss) for tx_wait
    stm32f4xx_eth.o(.text) refers to pbuf.o(.text) for pbuf_alloc
    stm32f4xx_eth.o(.text) refers to misc.o(.text) for NVIC_Init
    stm32f4xx_eth.o(.text) refers to stm32f4xx_gpio.o(.text) for GPIO_PinAFConfig
    stm32f4xx_eth.o(.text) refers to thread.o(.text) for rt_thread_delay
    stm32f4xx_eth.o(FSymTab) refers to stm32f4xx_eth.o(.constdata) for __fsym_dp83483_name
    stm32f4xx_eth.o(FSymTab) refers to stm32f4xx_eth.o(.text) for dp83483
    application.o(.text) refers to stm32f4xx_eth.o(.text) for rt_hw_stm32_eth_init
    application.o(.text) refers to platform.o(.text) for rt_platform_init
    application.o(.text) refers to components.o(.text) for rt_components_init
    application.o(.text) refers to dfs_fs.o(.text) for dfs_mount
    application.o(.text) refers to kservice.o(.text) for rt_kprintf
    application.o(.text) refers to thread.o(.text) for rt_thread_create
    exit.o(.text) refers to stm32f4xx_exit.o(.text) for rt_hw_exit_led_configure
    exit.o(.text) refers to ipc.o(.text) for rt_event_init
    exit.o(.text) refers to kservice.o(.text) for rt_kprintf
    exit.o(.text) refers to thread.o(.text) for rt_thread_init
    exit.o(.text) refers to exit.o(.bss) for event
    startup.o(.text) refers to kservice.o(.text) for rt_kprintf
    startup.o(.text) refers to board.o(.text) for rt_hw_board_init
    startup.o(.text) refers to clock.o(.text) for rt_system_tick_init
    startup.o(.text) refers to object.o(.text) for rt_system_object_init
    startup.o(.text) refers to timer.o(.text) for rt_system_timer_init
    startup.o(.text) refers to mem.o(.text) for rt_system_heap_init
    startup.o(.text) refers to scheduler.o(.text) for rt_system_scheduler_init
    startup.o(.text) refers to device.o(.text) for rt_device_init_all
    startup.o(.text) refers to shell.o(.text) for finsh_system_init
    startup.o(.text) refers to application.o(.text) for rt_application_init
    startup.o(.text) refers to idle.o(.text) for rt_thread_idle_init
    startup.o(.text) refers to context_rvds.o(.text) for rt_hw_interrupt_disable
    tcpclient.o(.text) refers to netdb.o(.text) for lwip_gethostbyname
    tcpclient.o(.text) refers to mem.o(.text) for rt_malloc
    tcpclient.o(.text) refers to kservice.o(.text) for rt_kprintf
    tcpclient.o(.text) refers to sockets.o(.text) for lwip_socket
    tcpclient.o(.text) refers to def.o(.text) for lwip_htons
    tcpclient.o(.text) refers to strcmpv7m.o(.text) for strcmp
    tcpclient.o(.text) refers to strlen.o(.text) for strlen
    tcpclient.o(.text) refers to tcpclient.o(.constdata) for send_data
    tcpclient.o(FSymTab) refers to tcpclient.o(.constdata) for __fsym_tcpclient_name
    tcpclient.o(FSymTab) refers to tcpclient.o(.text) for tcpclient
    tcpserver.o(.text) refers to mem.o(.text) for rt_malloc
    tcpserver.o(.text) refers to kservice.o(.text) for rt_kprintf
    tcpserver.o(.text) refers to sockets.o(.text) for lwip_socket
    tcpserver.o(.text) refers to def.o(.text) for lwip_htons
    tcpserver.o(.text) refers to ip_addr.o(.text) for ipaddr_ntoa
    tcpserver.o(.text) refers to strlen.o(.text) for strlen
    tcpserver.o(.text) refers to strcmpv7m.o(.text) for strcmp
    tcpserver.o(.text) refers to tcpserver.o(.constdata) for send_data
    tcpserver.o(FSymTab) refers to tcpserver.o(.constdata) for __fsym_tcpserv_name
    tcpserver.o(FSymTab) refers to tcpserver.o(.text) for tcpserv
    clock.o(.text) refers to context_rvds.o(.text) for rt_hw_interrupt_disable
    clock.o(.text) refers to thread.o(.text) for rt_thread_self
    clock.o(.text) refers to timer.o(.text) for rt_timer_check
    clock.o(.text) refers to clock.o(.data) for rt_tick
    device.o(.text) refers to thread.o(.text) for rt_thread_self
    device.o(.text) refers to scheduler.o(.text) for rt_enter_critical
    device.o(.text) refers to kservice.o(.text) for rt_strncmp
    device.o(.text) refers to object.o(.text) for rt_object_init
    device.o(.text) refers to object.o(.data) for rt_object_container
    device.o(.text) refers to device.o(.constdata) for __FUNCTION__
    idle.o(.text) refers to context_rvds.o(.text) for rt_hw_interrupt_disable
    idle.o(.text) refers to irq.o(.text) for rt_interrupt_get_nest
    idle.o(.text) refers to kservice.o(.text) for rt_kprintf
    idle.o(.text) refers to object.o(.text) for rt_object_is_systemobject
    idle.o(.text) refers to mem.o(.text) for rt_free
    idle.o(.text) refers to thread.o(.text) for rt_thread_init
    idle.o(.text) refers to idle.o(.data) for rt_thread_idle_hook
    idle.o(.text) refers to idle.o(.constdata) for __FUNCTION__
    idle.o(.text) refers to scheduler.o(.data) for rt_thread_defunct
    idle.o(.text) refers to idle.o(.bss) for rt_thread_stack
    ipc.o(.text) refers to thread.o(.text) for rt_thread_suspend
    ipc.o(.text) refers to context_rvds.o(.text) for rt_hw_interrupt_disable
    ipc.o(.text) refers to kservice.o(.text) for rt_kprintf
    ipc.o(.text) refers to object.o(.text) for rt_object_init
    ipc.o(.text) refers to irq.o(.text) for rt_interrupt_get_nest
    ipc.o(.text) refers to timer.o(.text) for rt_timer_control
    ipc.o(.text) refers to scheduler.o(.text) for rt_schedule
    ipc.o(.text) refers to ipc.o(.constdata) for __FUNCTION__
    ipc.o(.text) refers to object.o(.data) for rt_object_trytake_hook
    ipc.o(.text) refers to mem.o(.text) for rt_malloc
    ipc.o(.text) refers to clock.o(.text) for rt_tick_get
    irq.o(.text) refers to context_rvds.o(.text) for rt_hw_interrupt_disable
    irq.o(.text) refers to irq.o(.data) for rt_interrupt_nest
    kservice.o(.text) refers to irq.o(.text) for rt_interrupt_get_nest
    kservice.o(.text) refers to thread.o(.text) for rt_thread_self
    kservice.o(.text) refers to mem.o(.text) for rt_malloc
    kservice.o(.text) refers to kservice.o(.data) for _errno
    kservice.o(.text) refers to kservice.o(.constdata) for large_digits
    kservice.o(.text) refers to device.o(.text) for rt_device_write
    kservice.o(.text) refers to kservice.o(.bss) for rt_log_buf
    mem.o(.text) refers to kservice.o(.text) for rt_kprintf
    mem.o(.text) refers to context_rvds.o(.text) for rt_hw_interrupt_disable
    mem.o(.text) refers to irq.o(.text) for rt_interrupt_get_nest
    mem.o(.text) refers to ipc.o(.text) for rt_sem_init
    mem.o(.text) refers to mem.o(.data) for rt_malloc_hook
    mem.o(.text) refers to mem.o(.constdata) for __FUNCTION__
    mem.o(.text) refers to mem.o(.bss) for heap_sem
    mem.o(FSymTab) refers to mem.o(.constdata) for __fsym_list_mem_name
    mem.o(FSymTab) refers to mem.o(.text) for list_mem
    mempool.o(.text) refers to kservice.o(.text) for rt_kprintf
    mempool.o(.text) refers to object.o(.text) for rt_object_init
    mempool.o(.text) refers to context_rvds.o(.text) for rt_hw_interrupt_disable
    mempool.o(.text) refers to thread.o(.text) for rt_thread_resume
    mempool.o(.text) refers to irq.o(.text) for rt_interrupt_get_nest
    mempool.o(.text) refers to mem.o(.text) for rt_malloc
    mempool.o(.text) refers to timer.o(.text) for rt_timer_control
    mempool.o(.text) refers to scheduler.o(.text) for rt_schedule
    mempool.o(.text) refers to mempool.o(.data) for rt_mp_alloc_hook
    mempool.o(.text) refers to mempool.o(.constdata) for __FUNCTION__
    object.o(.text) refers to kservice.o(.text) for rt_strncpy
    object.o(.text) refers to context_rvds.o(.text) for rt_hw_interrupt_disable
    object.o(.text) refers to irq.o(.text) for rt_interrupt_get_nest
    object.o(.text) refers to mem.o(.text) for rt_malloc
    object.o(.text) refers to scheduler.o(.text) for rt_enter_critical
    object.o(.text) refers to object.o(.data) for rt_object_attach_hook
    object.o(.text) refers to object.o(.constdata) for __FUNCTION__
    object.o(.text) refers to irq.o(.data) for rt_interrupt_nest
    scheduler.o(.text) refers to kservice.o(.text) for rt_kprintf
    scheduler.o(.text) refers to cmd.o(.text) for list_thread
    scheduler.o(.text) refers to context_rvds.o(.text) for rt_hw_interrupt_disable
    scheduler.o(.text) refers to scheduler.o(.data) for rt_scheduler_hook
    scheduler.o(.text) refers to scheduler.o(.constdata) for __FUNCTION__
    scheduler.o(.text) refers to scheduler.o(.bss) for rt_thread_priority_table
    scheduler.o(.text) refers to irq.o(.data) for rt_interrupt_nest
    thread.o(.text) refers to context_rvds.o(.text) for rt_hw_interrupt_disable
    thread.o(.text) refers to scheduler.o(.text) for rt_schedule_remove_thread
    thread.o(.text) refers to timer.o(.text) for rt_timer_detach
    thread.o(.text) refers to object.o(.text) for rt_object_is_systemobject
    thread.o(.text) refers to kservice.o(.text) for rt_kprintf
    thread.o(.text) refers to cpuport.o(.text) for rt_hw_stack_init
    thread.o(.text) refers to mem.o(.text) for rt_malloc
    thread.o(.text) refers to scheduler.o(.data) for rt_current_thread
    thread.o(.text) refers to thread.o(.constdata) for __FUNCTION__
    thread.o(.text) refers to scheduler.o(.bss) for rt_thread_priority_table
    thread.o(.text) refers to object.o(.data) for rt_object_container
    timer.o(.text) refers to kservice.o(.text) for rt_kprintf
    timer.o(.text) refers to object.o(.text) for rt_object_init
    timer.o(.text) refers to context_rvds.o(.text) for rt_hw_interrupt_disable
    timer.o(.text) refers to clock.o(.text) for rt_tick_get
    timer.o(.text) refers to timer.o(.data) for rt_timer_timeout_hook
    timer.o(.text) refers to timer.o(.constdata) for __FUNCTION__
    timer.o(.text) refers to object.o(.data) for rt_object_take_hook
    cpuport.o(.text) refers to kservice.o(.text) for rt_kprintf
    cpuport.o(.text) refers to thread.o(.text) for rt_thread_self
    cpuport.o(.text) refers to cmd.o(.text) for list_thread
    cpuport.o(.text) refers to cpuport.o(.data) for rt_exception_hook
    cpuport.o(.text) refers to cpuport.o(.constdata) for __FUNCTION__
    context_rvds.o(.text) refers to cpuport.o(.text) for rt_hw_hard_fault_exception
    context_rvds.o(.text) refers to cpuport.o(.data) for rt_thread_switch_interrupt_flag
    showmem.o(.text) refers to kservice.o(.text) for rt_kprintf
    showmem.o(.text) refers to showmem.o(.constdata) for __FUNCTION__
    block_dev.o(.text) refers to kservice.o(.text) for rt_memset
    block_dev.o(.text) refers to mmcsd_core.o(.text) for mmcsd_send_cmd
    block_dev.o(.text) refers to ipc.o(.text) for rt_sem_take
    block_dev.o(.text) refers to mem.o(.text) for rt_malloc
    block_dev.o(.text) refers to dfs_fs.o(.text) for dfs_filesystem_get_partition
    block_dev.o(.text) refers to device.o(.text) for rt_device_register
    block_dev.o(.text) refers to block_dev.o(.data) for blk_devices
    mmcsd_core.o(.text) refers to thread.o(.text) for rt_thread_delay
    mmcsd_core.o(.text) refers to ipc.o(.text) for rt_sem_take
    mmcsd_core.o(.text) refers to kservice.o(.text) for rt_memset
    mmcsd_core.o(.text) refers to mem.o(.text) for rt_malloc
    mmcsd_core.o(.text) refers to mmcsd_core.o(.bss) for mmcsd_detect_mb
    mmcsd_core.o(.text) refers to sd.o(.text) for mmcsd_send_if_cond
    mmcsd_core.o(.text) refers to sdio.o(.text) for sdio_io_send_op_cond
    mmcsd_core.o(.text) refers to mmcsd_core.o(.constdata) for __FUNCTION__
    sd.o(.text) refers to kservice.o(.text) for rt_kprintf
    sd.o(.text) refers to mem.o(.text) for rt_malloc
    sd.o(.text) refers to mmcsd_core.o(.text) for mmcsd_set_data_timeout
    sd.o(.text) refers to rt_memclr_w.o(.text) for __aeabi_memclr4
    sd.o(.text) refers to sd.o(.constdata) for tacc_uint
    sd.o(.text) refers to thread.o(.text) for rt_thread_delay
    sd.o(.text) refers to block_dev.o(.text) for rt_mmcsd_blk_probe
    sdio.o(.text) refers to kservice.o(.text) for rt_kprintf
    sdio.o(.text) refers to mmcsd_core.o(.text) for mmcsd_send_cmd
    sdio.o(.text) refers to thread.o(.text) for rt_thread_delay
    sdio.o(.text) refers to sdio.o(.constdata) for __FUNCTION__
    sdio.o(.text) refers to mem.o(.text) for rt_malloc
    sdio.o(.text) refers to sd.o(.text) for mmcsd_get_card_addr
    sdio.o(.text) refers to sdio.o(.data) for sdio_cards
    sdio.o(.text) refers to ipc.o(.text) for rt_sem_take
    sdio.o(.text) refers to clock.o(.text) for rt_tick_get
    serial.o(.text) refers to kservice.o(.text) for rt_kprintf
    serial.o(.text) refers to dataqueue.o(.text) for rt_data_queue_init
    serial.o(.text) refers to context_rvds.o(.text) for rt_hw_interrupt_disable
    serial.o(.text) refers to serial.o(.constdata) for __FUNCTION__
    serial.o(.text) refers to device.o(.text) for rt_device_register
    completion.o(.text) refers to kservice.o(.text) for rt_kprintf
    completion.o(.text) refers to context_rvds.o(.text) for rt_hw_interrupt_disable
    completion.o(.text) refers to thread.o(.text) for rt_thread_self
    completion.o(.text) refers to irq.o(.text) for rt_interrupt_get_nest
    completion.o(.text) refers to timer.o(.text) for rt_timer_control
    completion.o(.text) refers to scheduler.o(.text) for rt_schedule
    completion.o(.text) refers to completion.o(.constdata) for __FUNCTION__
    dataqueue.o(.text) refers to kservice.o(.text) for rt_kprintf
    dataqueue.o(.text) refers to mem.o(.text) for rt_malloc
    dataqueue.o(.text) refers to thread.o(.text) for rt_thread_self
    dataqueue.o(.text) refers to context_rvds.o(.text) for rt_hw_interrupt_disable
    dataqueue.o(.text) refers to irq.o(.text) for rt_interrupt_get_nest
    dataqueue.o(.text) refers to timer.o(.text) for rt_timer_control
    dataqueue.o(.text) refers to scheduler.o(.text) for rt_schedule
    dataqueue.o(.text) refers to dataqueue.o(.constdata) for __FUNCTION__
    pipe.o(.text) refers to kservice.o(.text) for rt_kprintf
    pipe.o(.text) refers to thread.o(.text) for rt_thread_resume
    pipe.o(.text) refers to scheduler.o(.text) for rt_schedule
    pipe.o(.text) refers to context_rvds.o(.text) for rt_hw_interrupt_disable
    pipe.o(.text) refers to ringbuffer.o(.text) for rt_ringbuffer_get
    pipe.o(.text) refers to irq.o(.text) for rt_interrupt_get_nest
    pipe.o(.text) refers to device.o(.text) for rt_device_register
    pipe.o(.text) refers to mem.o(.text) for rt_calloc
    pipe.o(.text) refers to pipe.o(.constdata) for __FUNCTION__
    portal.o(.text) refers to kservice.o(.text) for rt_kprintf
    portal.o(.text) refers to device.o(.text) for rt_device_init
    portal.o(.text) refers to mem.o(.text) for rt_calloc
    portal.o(.text) refers to portal.o(.constdata) for __FUNCTION__
    ringbuffer.o(.text) refers to kservice.o(.text) for rt_kprintf
    ringbuffer.o(.text) refers to rt_memcpy_v6.o(.text) for __aeabi_memcpy
    ringbuffer.o(.text) refers to ringbuffer.o(.constdata) for __FUNCTION__
    shell.o(.text) refers to kservice.o(.text) for rt_kprintf
    shell.o(.text) refers to ipc.o(.text) for rt_sem_release
    shell.o(.text) refers to device.o(.text) for rt_device_find
    shell.o(.text) refers to cmd.o(.text) for list_prefix
    shell.o(.text) refers to finsh_parser.o(.text) for finsh_parser_run
    shell.o(.text) refers to finsh_error.o(.text) for finsh_errno
    shell.o(.text) refers to finsh_compiler.o(.text) for finsh_compiler_run
    shell.o(.text) refers to finsh_vm.o(.text) for finsh_vm_run
    shell.o(.text) refers to finsh_init.o(.text) for finsh_stack_bottom
    shell.o(.text) refers to rt_memcpy_v6.o(.text) for __aeabi_memcpy
    shell.o(.text) refers to rt_memclr.o(.text) for __aeabi_memclr
    shell.o(.text) refers to shell.o(.data) for shell
    shell.o(.text) refers to shell.o(.constdata) for __FUNCTION__
    shell.o(.text) refers to strlen.o(.text) for strlen
    shell.o(.text) refers to rt_memclr_w.o(.text) for __aeabi_memclr4
    shell.o(.text) refers to mem.o(.text) for rt_malloc
    shell.o(.text) refers to thread.o(.text) for rt_thread_init
    shell.o(.text) refers to symbol.o(.data) for _syscall_table_begin
    shell.o(.text) refers to shell.o(.bss) for finsh_thread_stack
    shell.o(.rti_fn.3) refers to shell.o(.text) for finsh_system_init
    cmd.o(.text) refers to kservice.o(.text) for rt_kprintf
    cmd.o(.text) refers to clock.o(.text) for rt_tick_get
    cmd.o(.text) refers to cmd.o(.constdata) for .constdata
    cmd.o(.text) refers to object.o(.data) for rt_object_container
    cmd.o(.text) refers to rt_memcpy_w.o(.text) for __aeabi_memcpy4
    cmd.o(.text) refers to strncmp.o(.text) for strncmp
    cmd.o(.text) refers to strlen.o(.text) for strlen
    cmd.o(.text) refers to symbol.o(.data) for _syscall_table_begin
    cmd.o(.text) refers to finsh_vm.o(.data) for global_syscall_list
    cmd.o(.text) refers to finsh_var.o(.data) for global_sysvar_list
    cmd.o(.constdata) refers to cmd.o(.conststring) for .conststring
    cmd.o(FSymTab) refers to cmd.o(.constdata) for __fsym_hello_name
    cmd.o(FSymTab) refers to cmd.o(.text) for hello
    cmd.o(VSymTab) refers to cmd.o(.constdata) for __vsym_dummy_name
    cmd.o(VSymTab) refers to cmd.o(.data) for dummy
    finsh_compiler.o(.text) refers to finsh_compiler.o(.data) for finsh_compile_pc
    finsh_compiler.o(.text) refers to finsh_error.o(.text) for finsh_error_set
    finsh_compiler.o(.text) refers to rt_memclr.o(.text) for __aeabi_memclr
    finsh_compiler.o(.text) refers to finsh_vm.o(.bss) for text_segment
    finsh_error.o(.text) refers to finsh_error.o(.data) for global_errno
    finsh_error.o(.data) refers to finsh_error.o(.conststring) for .conststring
    finsh_heap.o(.text) refers to rt_memclr_w.o(.text) for __aeabi_memclr4
    finsh_heap.o(.text) refers to finsh_heap.o(.bss) for finsh_heap
    finsh_heap.o(.text) refers to finsh_heap.o(.data) for free_list
    finsh_heap.o(.text) refers to finsh_var.o(.bss) for global_variable
    finsh_init.o(.text) refers to finsh_parser.o(.text) for finsh_parser_init
    finsh_init.o(.text) refers to finsh_node.o(.text) for finsh_node_init
    finsh_init.o(.text) refers to finsh_var.o(.text) for finsh_var_init
    finsh_init.o(.text) refers to finsh_error.o(.text) for finsh_error_init
    finsh_init.o(.text) refers to finsh_heap.o(.text) for finsh_heap_init
    finsh_init.o(.text) refers to finsh_vm.o(.bss) for finsh_vm_stack
    finsh_node.o(.text) refers to rt_memclr_w.o(.text) for __aeabi_memclr4
    finsh_node.o(.text) refers to finsh_var.o(.text) for finsh_var_lookup
    finsh_node.o(.text) refers to finsh_vm.o(.text) for finsh_syscall_lookup
    finsh_node.o(.text) refers to finsh_error.o(.text) for finsh_error_set
    finsh_node.o(.text) refers to strlen.o(.text) for strlen
    finsh_node.o(.text) refers to finsh_heap.o(.text) for finsh_heap_allocate
    finsh_node.o(.text) refers to strncpy.o(.text) for strncpy
    finsh_node.o(.text) refers to finsh_node.o(.bss) for global_node_table
    finsh_ops.o(.text) refers to finsh_vm.o(.data) for finsh_sp
    finsh_ops.o(.constdata) refers to finsh_ops.o(.text) for OP_no_op
    finsh_parser.o(.text) refers to finsh_node.o(.text) for finsh_node_allocate
    finsh_parser.o(.text) refers to finsh_error.o(.text) for finsh_error_set
    finsh_parser.o(.text) refers to finsh_token.o(.text) for finsh_token_token
    finsh_parser.o(.text) refers to strncpy.o(.text) for strncpy
    finsh_parser.o(.text) refers to finsh_var.o(.text) for finsh_var_insert
    finsh_parser.o(.text) refers to rt_memclr_w.o(.text) for __aeabi_memclr4
    finsh_var.o(.text) refers to rt_memclr_w.o(.text) for __aeabi_memclr4
    finsh_var.o(.text) refers to strncmp.o(.text) for strncmp
    finsh_var.o(.text) refers to strncpy.o(.text) for strncpy
    finsh_var.o(.text) refers to mem.o(.text) for rt_malloc
    finsh_var.o(.text) refers to kservice.o(.text) for rt_strdup
    finsh_var.o(.text) refers to strcmpv7m.o(.text) for strcmp
    finsh_var.o(.text) refers to strlen.o(.text) for strlen
    finsh_var.o(.text) refers to finsh_var.o(.bss) for global_variable
    finsh_var.o(.text) refers to finsh_var.o(.data) for global_sysvar_list
    finsh_var.o(.text) refers to symbol.o(.data) for _sysvar_table_begin
    finsh_vm.o(.text) refers to mem.o(.text) for rt_malloc
    finsh_vm.o(.text) refers to kservice.o(.text) for rt_strdup
    finsh_vm.o(.text) refers to strcmpv7m.o(.text) for strcmp
    finsh_vm.o(.text) refers to strlen.o(.text) for strlen
    finsh_vm.o(.text) refers to strncmp.o(.text) for strncmp
    finsh_vm.o(.text) refers to finsh_vm.o(.bss) for finsh_vm_stack
    finsh_vm.o(.text) refers to finsh_vm.o(.data) for finsh_sp
    finsh_vm.o(.text) refers to finsh_ops.o(.constdata) for op_table
    finsh_vm.o(.text) refers to symbol.o(.data) for _syscall_table_begin
    finsh_token.o(.text) refers to rt_memclr_w.o(.text) for __aeabi_memclr4
    finsh_token.o(.text) refers to strlen.o(.text) for strlen
    finsh_token.o(.text) refers to finsh_error.o(.text) for finsh_error_set
    finsh_token.o(.text) refers to atoi.o(.text) for atoi
    finsh_token.o(.text) refers to strcmpv7m.o(.text) for strcmp
    finsh_token.o(.text) refers to strncpy.o(.text) for strncpy
    finsh_token.o(.text) refers to finsh_token.o(.constdata) for finsh_name_table
    finsh_token.o(.constdata) refers to finsh_token.o(.conststring) for .conststring
    dfs.o(.text) refers to kservice.o(.text) for rt_memset
    dfs.o(.text) refers to ipc.o(.text) for rt_mutex_init
    dfs.o(.text) refers to strlen.o(.text) for strlen
    dfs.o(.text) refers to mem.o(.text) for rt_malloc
    dfs.o(.text) refers to dfs_fs.o(.text) for dfs_filesystem_lookup
    dfs.o(.text) refers to strcmpv7m.o(.text) for strcmp
    dfs.o(.text) refers to dfs.o(.bss) for filesystem_operation_table
    dfs.o(.text) refers to dfs.o(.constdata) for __FUNCTION__
    dfs.o(.rti_fn.3) refers to dfs.o(.text) for dfs_init
    dfs_fs.o(.text) refers to dfs.o(.text) for dfs_lock
    dfs_fs.o(.text) refers to strcmpv7m.o(.text) for strcmp
    dfs_fs.o(.text) refers to strlen.o(.text) for strlen
    dfs_fs.o(.text) refers to strncmp.o(.text) for strncmp
    dfs_fs.o(.text) refers to kservice.o(.text) for rt_kprintf
    dfs_fs.o(.text) refers to device.o(.text) for rt_device_find
    dfs_fs.o(.text) refers to dfs_file.o(.text) for dfs_file_open
    dfs_fs.o(.text) refers to mem.o(.text) for rt_free
    dfs_fs.o(.text) refers to dfs.o(.bss) for filesystem_operation_table
    dfs_fs.o(.text) refers to dfs_fs.o(.constdata) for __FUNCTION__
    dfs_fs.o(FSymTab) refers to dfs_fs.o(.constdata) for __fsym_mkfs_name
    dfs_fs.o(FSymTab) refers to dfs_fs.o(.text) for mkfs
    dfs_file.o(.text) refers to dfs.o(.text) for dfs_normalize_path
    dfs_file.o(.text) refers to dfs_fs.o(.text) for dfs_filesystem_lookup
    dfs_file.o(.text) refers to mem.o(.text) for rt_free
    dfs_file.o(.text) refers to kservice.o(.text) for rt_strdup
    dfs_file.o(.text) refers to strcmpv7m.o(.text) for strcmp
    dfs_file.o(.text) refers to dfs_posix.o(.text) for mkdir
    dfs_file.o(.text) refers to strrchr.o(.text) for strrchr
    dfs_file.o(.text) refers to dfs_file.o(.bss) for fd
    dfs_file.o(FSymTab) refers to dfs_file.o(.constdata) for __fsym_ls_name
    dfs_file.o(FSymTab) refers to dfs_file.o(.text) for ls
    dfs_posix.o(.text) refers to dfs.o(.text) for fd_new
    dfs_posix.o(.text) refers to kservice.o(.text) for rt_set_errno
    dfs_posix.o(.text) refers to dfs_file.o(.text) for dfs_file_open
    dfs_posix.o(.text) refers to dfs_fs.o(.text) for dfs_statfs
    dfs_posix.o(.text) refers to mem.o(.text) for rt_malloc
    dfs_posix.o(FSymTab) refers to dfs_posix.o(.constdata) for __fsym_mkdir_name
    dfs_posix.o(FSymTab) refers to dfs_posix.o(.text) for mkdir
    dfs_elm.o(.text) refers to device.o(.text) for rt_device_control
    dfs_elm.o(.text) refers to kservice.o(.text) for rt_kprintf
    dfs_elm.o(.text) refers to mem.o(.text) for rt_malloc
    dfs_elm.o(.text) refers to ff.o(.text) for f_mount
    dfs_elm.o(.text) refers to dfs_elm.o(.data) for disk
    dfs_elm.o(.text) refers to dfs_elm.o(.constdata) for .constdata
    dfs_elm.o(.text) refers to rt_memclr_w.o(.text) for __aeabi_memclr4
    dfs_elm.o(.text) refers to mktime.o(.text) for mktime
    dfs_elm.o(.text) refers to dfs_fs.o(.text) for dfs_register
    dfs_elm.o(.text) refers to ipc.o(.text) for rt_mutex_create
    dfs_elm.o(.constdata) refers to dfs_elm.o(.conststring) for .conststring
    dfs_elm.o(.constdata) refers to dfs_elm.o(.text) for dfs_elm_mount
    dfs_elm.o(.rti_fn.4) refers to dfs_elm.o(.text) for elm_init
    ff.o(.text) refers to dfs_elm.o(.text) for ff_req_grant
    ff.o(.text) refers to ff.o(.data) for FatFs
    ff.o(.text) refers to ff.o(.constdata) for vst
    api_lib.o(.text) refers to api_msg.o(.text) for netconn_alloc
    api_lib.o(.text) refers to tcpip.o(.text) for tcpip_apimsg
    api_lib.o(.text) refers to kservice.o(.text) for rt_kprintf
    api_lib.o(.text) refers to sys_arch.o(.text) for sys_arch_assert
    api_lib.o(.text) refers to mem.o(.text) for rt_free
    api_lib.o(.text) refers to memp.o(.constdata) for memp_sizes
    api_msg.o(.text) refers to sys_arch.o(.text) for sys_mbox_valid
    api_msg.o(.text) refers to pbuf.o(.text) for pbuf_alloc
    api_msg.o(.text) refers to mem.o(.text) for rt_malloc
    api_msg.o(.text) refers to netbuf.o(.text) for netbuf_delete
    api_msg.o(.text) refers to kservice.o(.text) for rt_kprintf
    api_msg.o(.text) refers to tcp.o(.text) for tcp_recved
    api_msg.o(.text) refers to memp.o(.constdata) for memp_sizes
    api_msg.o(.text) refers to ip.o(.data) for current_iphdr_src
    api_msg.o(.text) refers to tcp_out.o(.text) for tcp_write
    api_msg.o(.text) refers to raw.o(.text) for raw_new
    api_msg.o(.text) refers to udp.o(.text) for udp_new
    api_msg.o(.text) refers to strcmpv7m.o(.text) for strcmp
    api_msg.o(.text) refers to dns.o(.text) for dns_gethostbyname
    netbuf.o(.text) refers to mem.o(.text) for rt_malloc
    netbuf.o(.text) refers to pbuf.o(.text) for pbuf_free
    netbuf.o(.text) refers to kservice.o(.text) for rt_kprintf
    netbuf.o(.text) refers to sys_arch.o(.text) for sys_arch_assert
    netbuf.o(.text) refers to memp.o(.constdata) for memp_sizes
    netdb.o(.text) refers to api_lib.o(.text) for netconn_gethostbyname
    netdb.o(.text) refers to strlen.o(.text) for strlen
    netdb.o(.text) refers to rt_memcpy_v6.o(.text) for __aeabi_memcpy
    netdb.o(.text) refers to mem.o(.text) for rt_free
    netdb.o(.text) refers to atoi.o(.text) for atoi
    netdb.o(.text) refers to kservice.o(.text) for rt_kprintf
    netdb.o(.text) refers to sys_arch.o(.text) for sys_arch_assert
    netdb.o(.text) refers to rt_memclr_w.o(.text) for __aeabi_memclr4
    netdb.o(.text) refers to def.o(.text) for lwip_htons
    netdb.o(.text) refers to netdb.o(.data) for h_errno
    netdb.o(.text) refers to netdb.o(.bss) for s_hostent
    netdb.o(.text) refers to memp.o(.constdata) for memp_sizes
    netifapi.o(.text) refers to netif.o(.text) for netif_add
    netifapi.o(.text) refers to sys_arch.o(.text) for sys_sem_signal
    netifapi.o(.text) refers to tcpip.o(.text) for tcpip_netifapi
    sockets.o(.text) refers to kservice.o(.text) for _rt_errno
    sockets.o(.text) refers to sys_arch.o(.text) for sys_arch_protect
    sockets.o(.text) refers to pbuf.o(.text) for pbuf_free
    sockets.o(.text) refers to netbuf.o(.text) for netbuf_delete
    sockets.o(.text) refers to api_lib.o(.text) for netconn_accept
    sockets.o(.text) refers to def.o(.text) for lwip_htons
    sockets.o(.text) refers to rt_memcpy_v6.o(.text) for __aeabi_memcpy
    sockets.o(.text) refers to sockets.o(.bss) for sockets
    sockets.o(.text) refers to sockets.o(.data) for select_cb_list
    sockets.o(.text) refers to sockets.o(.constdata) for err_to_errno_table
    sockets.o(.text) refers to tcpip.o(.text) for tcpip_callback_with_block
    tcpip.o(.text) refers to timers.o(.text) for sys_timeouts_mbox_fetch
    tcpip.o(.text) refers to etharp.o(.text) for ethernet_input
    tcpip.o(.text) refers to ip.o(.text) for ip_input
    tcpip.o(.text) refers to mem.o(.text) for rt_free
    tcpip.o(.text) refers to kservice.o(.text) for rt_kprintf
    tcpip.o(.text) refers to sys_arch.o(.text) for sys_arch_assert
    tcpip.o(.text) refers to init.o(.text) for lwip_init
    tcpip.o(.text) refers to pbuf.o(.text) for pbuf_free
    tcpip.o(.text) refers to tcpip.o(.data) for tcpip_init_done
    tcpip.o(.text) refers to memp.o(.constdata) for memp_sizes
    sys_arch.o(.text) refers to device.o(.text) for rt_device_init
    sys_arch.o(.text) refers to thread.o(.text) for rt_thread_self
    sys_arch.o(.text) refers to kservice.o(.text) for rt_kprintf
    sys_arch.o(.text) refers to scheduler.o(.text) for rt_enter_critical
    sys_arch.o(.text) refers to netif.o(.text) for netif_add
    sys_arch.o(.text) refers to ipc.o(.text) for rt_sem_release
    sys_arch.o(.text) refers to tcpip.o(.text) for tcpip_init
    sys_arch.o(.text) refers to netifapi.o(.text) for netifapi_netif_set_addr
    sys_arch.o(.text) refers to context_rvds.o(.text) for rt_hw_interrupt_disable
    sys_arch.o(.text) refers to irq.o(.text) for rt_interrupt_get_nest
    sys_arch.o(.text) refers to clock.o(.text) for rt_tick_get
    sys_arch.o(.text) refers to sys_arch.o(.constdata) for __FUNCTION__
    sys_arch.o(.text) refers to object.o(.data) for rt_object_container
    sys_arch.o(.text) refers to netif.o(.data) for netif_default
    sys_arch.o(.text) refers to sys_arch.o(.data) for counter
    sys_arch.o(.rti_fn.3) refers to sys_arch.o(.text) for lwip_system_init
    dns.o(.text) refers to pbuf.o(.text) for pbuf_copy_partial
    dns.o(.text) refers to def.o(.text) for lwip_htons
    dns.o(.text) refers to ip_addr.o(.text) for ipaddr_addr
    dns.o(.text) refers to udp.o(.text) for udp_new
    dns.o(.text) refers to kservice.o(.text) for rt_kprintf
    dns.o(.text) refers to sys_arch.o(.text) for sys_arch_assert
    dns.o(.text) refers to dns.o(.data) for dns_pcb
    dns.o(.text) refers to dns.o(.bss) for dns_table
    dns.o(.text) refers to ip_addr.o(.constdata) for ip_addr_any
    dns.o(.text) refers to strcmpv7m.o(.text) for strcmp
    dns.o(.text) refers to strlen.o(.text) for strlen
    dns.o(.text) refers to rt_memcpy_v6.o(.text) for __aeabi_memcpy
    init.o(.text) refers to sys_arch.o(.text) for sys_init
    init.o(.text) refers to netif.o(.text) for netif_init
    init.o(.text) refers to sockets.o(.text) for lwip_socket_init
    init.o(.text) refers to udp.o(.text) for udp_init
    init.o(.text) refers to tcp.o(.text) for tcp_init
    init.o(.text) refers to dns.o(.text) for dns_init
    init.o(.text) refers to timers.o(.text) for sys_timeouts_init
    netif.o(.text) refers to tcp.o(.text) for tcp_abort
    netif.o(.text) refers to kservice.o(.text) for rt_kprintf
    netif.o(.text) refers to sys_arch.o(.text) for sys_arch_assert
    netif.o(.text) refers to etharp.o(.text) for etharp_cleanup_netif
    netif.o(.text) refers to tcp.o(.data) for tcp_active_pcbs
    netif.o(.text) refers to netif.o(.data) for netif_num
    pbuf.o(.text) refers to sys_arch.o(.text) for sys_arch_protect
    pbuf.o(.text) refers to tcp.o(.text) for tcp_segs_free
    pbuf.o(.text) refers to tcpip.o(.text) for tcpip_callback_with_block
    pbuf.o(.text) refers to kservice.o(.text) for rt_kprintf
    pbuf.o(.text) refers to mem.o(.text) for rt_free
    pbuf.o(.text) refers to pbuf.o(.data) for pbuf_free_ooseq_pending
    pbuf.o(.text) refers to tcp.o(.data) for tcp_active_pcbs
    pbuf.o(.text) refers to memp.o(.constdata) for memp_sizes
    pbuf.o(.text) refers to rt_memcpy_v6.o(.text) for __aeabi_memcpy
    pbuf.o(.text) refers to strlen.o(.text) for strlen
    raw.o(.text) refers to pbuf.o(.text) for pbuf_header
    raw.o(.text) refers to kservice.o(.text) for rt_kprintf
    raw.o(.text) refers to sys_arch.o(.text) for sys_arch_assert
    raw.o(.text) refers to ip.o(.text) for ip_route
    raw.o(.text) refers to mem.o(.text) for rt_free
    raw.o(.text) refers to rt_memclr_w.o(.text) for __aeabi_memclr4
    raw.o(.text) refers to raw.o(.data) for raw_pcbs
    raw.o(.text) refers to ip.o(.data) for current_iphdr_dest
    raw.o(.text) refers to memp.o(.constdata) for memp_sizes
    sys.o(.text) refers to sys_arch.o(.text) for sys_sem_new
    tcp.o(.text) refers to pbuf.o(.text) for pbuf_free
    tcp.o(.text) refers to mem.o(.text) for rt_free
    tcp.o(.text) refers to kservice.o(.text) for rt_kprintf
    tcp.o(.text) refers to sys_arch.o(.text) for sys_arch_assert
    tcp.o(.text) refers to tcp_out.o(.text) for tcp_zero_window_probe
    tcp.o(.text) refers to tcp.o(.data) for tcp_ticks
    tcp.o(.text) refers to tcp.o(.constdata) for tcp_persist_backoff
    tcp.o(.text) refers to timers.o(.text) for tcp_timer_needed
    tcp.o(.text) refers to ip.o(.text) for ip_route
    tcp.o(.text) refers to memp.o(.constdata) for memp_sizes
    tcp.o(.text) refers to rt_memclr_w.o(.text) for __aeabi_memclr4
    tcp.o(.constdata) refers to tcp.o(.conststring) for .conststring
    tcp.o(.constdata) refers to tcp.o(.data) for tcp_listen_pcbs
    tcp_in.o(.text) refers to def.o(.text) for lwip_ntohs
    tcp_in.o(.text) refers to tcp.o(.text) for tcp_segs_free
    tcp_in.o(.text) refers to pbuf.o(.text) for pbuf_realloc
    tcp_in.o(.text) refers to kservice.o(.text) for rt_kprintf
    tcp_in.o(.text) refers to sys_arch.o(.text) for sys_arch_assert
    tcp_in.o(.text) refers to tcp_out.o(.text) for tcp_rexmit_fast
    tcp_in.o(.text) refers to tcp_in.o(.data) for seqno
    tcp_in.o(.text) refers to tcp.o(.data) for tcp_ticks
    tcp_in.o(.text) refers to tcp_in.o(.bss) for inseg
    tcp_in.o(.text) refers to ip.o(.data) for current_iphdr_src
    tcp_in.o(.text) refers to timers.o(.text) for tcp_timer_needed
    tcp_in.o(.text) refers to ip_addr.o(.text) for ip4_addr_isbroadcast
    tcp_in.o(.text) refers to mem.o(.text) for rt_free
    tcp_out.o(.text) refers to pbuf.o(.text) for pbuf_alloc
    tcp_out.o(.text) refers to kservice.o(.text) for rt_kprintf
    tcp_out.o(.text) refers to sys_arch.o(.text) for sys_arch_assert
    tcp_out.o(.text) refers to def.o(.text) for lwip_htons
    tcp_out.o(.text) refers to mem.o(.text) for rt_malloc
    tcp_out.o(.text) refers to tcp.o(.text) for tcp_seg_free
    tcp_out.o(.text) refers to memp.o(.constdata) for memp_sizes
    tcp_out.o(.text) refers to tcp_out.o(.constdata) for .constdata
    tcp_out.o(.text) refers to rt_memcpy_v6.o(.text) for __aeabi_memcpy
    tcp_out.o(.text) refers to ip.o(.text) for ip_output
    tcp_out.o(.text) refers to tcp.o(.data) for tcp_ticks
    tcp_out.o(.text) refers to tcp_in.o(.data) for tcp_input_pcb
    timers.o(.text) refers to mem.o(.text) for rt_malloc
    timers.o(.text) refers to kservice.o(.text) for rt_kprintf
    timers.o(.text) refers to sys_arch.o(.text) for sys_arch_assert
    timers.o(.text) refers to tcp.o(.text) for tcp_tmr
    timers.o(.text) refers to etharp.o(.text) for etharp_tmr
    timers.o(.text) refers to dns.o(.text) for dns_tmr
    timers.o(.text) refers to memp.o(.constdata) for memp_sizes
    timers.o(.text) refers to timers.o(.data) for next_timeout
    timers.o(.text) refers to tcp.o(.data) for tcp_active_pcbs
    udp.o(.text) refers to pbuf.o(.text) for pbuf_header
    udp.o(.text) refers to ip_addr.o(.text) for ip4_addr_isbroadcast
    udp.o(.text) refers to def.o(.text) for lwip_ntohs
    udp.o(.text) refers to kservice.o(.text) for rt_kprintf
    udp.o(.text) refers to sys_arch.o(.text) for sys_arch_assert
    udp.o(.text) refers to icmp.o(.text) for icmp_dest_unreach
    udp.o(.text) refers to ip.o(.text) for ip_output_if
    udp.o(.text) refers to udp.o(.data) for udp_port
    udp.o(.text) refers to ip.o(.data) for current_iphdr_dest
    udp.o(.text) refers to mem.o(.text) for rt_free
    udp.o(.text) refers to rt_memclr_w.o(.text) for __aeabi_memclr4
    udp.o(.text) refers to memp.o(.constdata) for memp_sizes
    icmp.o(.text) refers to pbuf.o(.text) for pbuf_header
    icmp.o(.text) refers to ip_addr.o(.text) for ip4_addr_isbroadcast
    icmp.o(.text) refers to inet_chksum.o(.text) for inet_chksum_pbuf
    icmp.o(.text) refers to kservice.o(.text) for rt_kprintf
    icmp.o(.text) refers to sys_arch.o(.text) for sys_arch_assert
    icmp.o(.text) refers to ip.o(.text) for ip_output_if
    icmp.o(.text) refers to rt_memcpy_v6.o(.text) for __aeabi_memcpy
    icmp.o(.text) refers to ip.o(.data) for current_iphdr_dest
    icmp.o(.text) refers to icmp.o(.constdata) for .constdata
    inet_chksum.o(.text) refers to def.o(.text) for lwip_htons
    inet_chksum.o(.text) refers to kservice.o(.text) for rt_kprintf
    inet_chksum.o(.text) refers to sys_arch.o(.text) for sys_arch_assert
    inet_chksum.o(.text) refers to inet_chksum.o(.constdata) for .constdata
    ip.o(.text) refers to pbuf.o(.text) for pbuf_free
    ip.o(.text) refers to def.o(.text) for lwip_ntohs
    ip.o(.text) refers to ip_addr.o(.text) for ip4_addr_isbroadcast
    ip.o(.text) refers to raw.o(.text) for raw_input
    ip.o(.text) refers to udp.o(.text) for udp_input
    ip.o(.text) refers to tcp_in.o(.text) for tcp_input
    ip.o(.text) refers to icmp.o(.text) for icmp_input
    ip.o(.text) refers to kservice.o(.text) for rt_kprintf
    ip.o(.text) refers to sys_arch.o(.text) for sys_arch_assert
    ip.o(.text) refers to netif.o(.data) for netif_list
    ip.o(.text) refers to ip.o(.data) for current_iphdr_dest
    ip_addr.o(.text) refers to def.o(.text) for lwip_htonl
    ip_addr.o(.text) refers to kservice.o(.text) for rt_kprintf
    ip_addr.o(.text) refers to sys_arch.o(.text) for sys_arch_assert
    ip_addr.o(.text) refers to ip_addr.o(.constdata) for .constdata
    ip_addr.o(.text) refers to ip_addr.o(.bss) for str
    etharp.o(.text) refers to kservice.o(.text) for rt_kprintf
    etharp.o(.text) refers to sys_arch.o(.text) for sys_arch_assert
    etharp.o(.text) refers to pbuf.o(.text) for pbuf_free
    etharp.o(.text) refers to mem.o(.text) for rt_free
    etharp.o(.text) refers to ip_addr.o(.text) for ip4_addr_isbroadcast
    etharp.o(.text) refers to etharp.o(.bss) for arp_table
    etharp.o(.text) refers to etharp.o(.constdata) for .constdata
    etharp.o(.text) refers to def.o(.text) for lwip_htons
    etharp.o(.text) refers to memcmp.o(.text) for memcmp
    etharp.o(.text) refers to ip.o(.text) for ip_input
    etharp.o(.text) refers to etharp.o(.data) for etharp_cached_entry
    etharp.o(.text) refers to memp.o(.constdata) for memp_sizes
    ethernetif.o(.text) refers to ipc.o(.text) for rt_mb_send
    ethernetif.o(.text) refers to device.o(.text) for rt_device_init
    ethernetif.o(.text) refers to netif.o(.text) for netif_set_default
    ethernetif.o(.text) refers to mem.o(.text) for rt_malloc
    ethernetif.o(.text) refers to kservice.o(.text) for rt_kprintf
    ethernetif.o(.text) refers to thread.o(.text) for rt_thread_find
    ethernetif.o(.text) refers to netifapi.o(.text) for netifapi_netif_add
    ethernetif.o(.text) refers to context_rvds.o(.text) for rt_hw_interrupt_disable
    ethernetif.o(.text) refers to pbuf.o(.text) for pbuf_free
    ethernetif.o(.text) refers to sys_arch.o(.text) for sys_arch_assert
    ethernetif.o(.text) refers to ethernetif.o(.bss) for eth_tx_thread_mb
    ethernetif.o(.text) refers to netif.o(.data) for netif_default
    ethernetif.o(.text) refers to etharp.o(.text) for etharp_output
    ethernetif.o(.text) refers to tcpip.o(.text) for tcpip_input
    ethernetif.o(.text) refers to ethernetif.o(.constdata) for __FUNCTION__
    ethernetif.o(.text) refers to strlen.o(.text) for strlen
    ethernetif.o(.text) refers to strncmp.o(.text) for strncmp
    ethernetif.o(.text) refers to ip_addr.o(.text) for ipaddr_aton
    ethernetif.o(.text) refers to dns.o(.text) for dns_setserver
    ethernetif.o(.text) refers to scheduler.o(.text) for rt_enter_critical
    ethernetif.o(.text) refers to strcpy.o(.text) for strcpy
    ethernetif.o(.text) refers to tcp.o(.data) for tcp_active_pcbs
    ethernetif.o(.text) refers to tcp.o(.constdata) for tcp_state_str
    ethernetif.o(.rti_fn.2) refers to ethernetif.o(.text) for eth_system_device_init
    ethernetif.o(FSymTab) refers to ethernetif.o(.constdata) for __fsym_set_if_name
    ethernetif.o(FSymTab) refers to ethernetif.o(.text) for set_if
    components.o(.text) refers to components.o(.rti_fn.0) for __rt_init_rti_start
    components.o(.text) refers to components.o(.rti_fn.1.post) for __rt_init_rti_board_end
    components.o(.text) refers to components.o(.rti_fn.7) for __rt_init_rti_end
    components.o(.rti_fn.0) refers to components.o(.text) for rti_start
    components.o(.rti_fn.1.post) refers to components.o(.text) for rti_board_end
    components.o(.rti_fn.7) refers to components.o(.text) for rti_end
    atoi.o(.text) refers to rt_errno_addr_intlibspace.o(.text) for __aeabi_errno_addr
    atoi.o(.text) refers to strtol.o(.text) for strtol
    rt_memcpy_v6.o(.text) refers to rt_memcpy_w.o(.text) for __aeabi_memcpy4
    rt_memclr.o(.text) refers to rt_memclr_w.o(.text) for _memset_w
    strncpy.o(.text) refers to rt_memclr.o(.text) for __aeabi_memclr
    mktime.o(.text) refers to _monlen.o(.constdata) for _monlen
    __main.o(!!!main) refers to rtentry.o(.ARM.Collect$$rtentry$$00000000) for __rt_entry
    rtentry.o(.ARM.Collect$$rtentry$$00000000) refers (Special) to rtentry2.o(.ARM.Collect$$rtentry$$0000000A) for __rt_entry_li
    rtentry.o(.ARM.Collect$$rtentry$$00000000) refers (Special) to rtentry2.o(.ARM.Collect$$rtentry$$0000000D) for __rt_entry_main
    rtentry.o(.ARM.Collect$$rtentry$$00000000) refers (Special) to rtentry2.o(.ARM.Collect$$rtentry$$0000000C) for __rt_entry_postli_1
    rtentry.o(.ARM.Collect$$rtentry$$00000000) refers (Special) to rtentry2.o(.ARM.Collect$$rtentry$$00000009) for __rt_entry_postsh_1
    rtentry.o(.ARM.Collect$$rtentry$$00000000) refers (Special) to rtentry2.o(.ARM.Collect$$rtentry$$00000002) for __rt_entry_presh_1
    rtentry.o(.ARM.Collect$$rtentry$$00000000) refers (Special) to rtentry4.o(.ARM.Collect$$rtentry$$00000004) for __rt_entry_sh
    rt_errno_addr.o(.text) refers to rt_errno_addr.o(.bss) for __aeabi_errno_addr_data
    rt_errno_addr_intlibspace.o(.text) refers to libspace.o(.bss) for __libspace_start
    strtol.o(.text) refers to rt_ctype_table.o(.text) for __rt_ctype_table
    strtol.o(.text) refers to _strtoul.o(.text) for _strtoul
    strtol.o(.text) refers to rt_errno_addr_intlibspace.o(.text) for __aeabi_errno_addr
    libspace.o(.text) refers to libspace.o(.bss) for __libspace_start
    rtentry2.o(.ARM.Collect$$rtentry$$00000008) refers to boardinit2.o(.text) for _platform_post_stackheap_init
    rtentry2.o(.ARM.Collect$$rtentry$$0000000A) refers to libinit.o(.ARM.Collect$$libinit$$00000000) for __rt_lib_init
    rtentry2.o(.ARM.Collect$$rtentry$$0000000B) refers to boardinit3.o(.text) for _platform_post_lib_init
    rtentry2.o(.ARM.Collect$$rtentry$$0000000D) refers to startup.o(.text) for main
    rtentry2.o(.ARM.Collect$$rtentry$$0000000D) refers to exit.o(.text) for exit
    rtentry2.o(.ARM.exidx) refers to rtentry2.o(.ARM.Collect$$rtentry$$00000001) for .ARM.Collect$$rtentry$$00000001
    rtentry2.o(.ARM.exidx) refers to rtentry2.o(.ARM.Collect$$rtentry$$00000008) for .ARM.Collect$$rtentry$$00000008
    rtentry2.o(.ARM.exidx) refers to rtentry2.o(.ARM.Collect$$rtentry$$0000000A) for .ARM.Collect$$rtentry$$0000000A
    rtentry2.o(.ARM.exidx) refers to rtentry2.o(.ARM.Collect$$rtentry$$0000000B) for .ARM.Collect$$rtentry$$0000000B
    rtentry2.o(.ARM.exidx) refers to rtentry2.o(.ARM.Collect$$rtentry$$0000000D) for .ARM.Collect$$rtentry$$0000000D
    rtentry4.o(.ARM.Collect$$rtentry$$00000004) refers to sys_stackheap_outer.o(.text) for __user_setup_stackheap
    rtentry4.o(.ARM.exidx) refers to rtentry4.o(.ARM.Collect$$rtentry$$00000004) for .ARM.Collect$$rtentry$$00000004
    rt_ctype_table.o(.text) refers to rt_locale_intlibspace.o(.text) for __rt_locale
    rt_ctype_table.o(.text) refers to lc_ctype_c.o(locale$$code) for _get_lc_ctype
    _strtoul.o(.text) refers to _chval.o(.text) for _chval
    _strtoul.o(.text) refers to rt_errno_addr_intlibspace.o(.text) for __aeabi_errno_addr
    sys_stackheap_outer.o(.text) refers to libspace.o(.text) for __user_perproc_libspace
    sys_stackheap_outer.o(.text) refers to startup_stm32f4xx.o(.text) for __user_initial_stackheap
    rt_locale.o(.text) refers to rt_locale.o(.bss) for __rt_locale_data
    rt_locale_intlibspace.o(.text) refers to libspace.o(.bss) for __libspace_start
    lc_ctype_c.o(locale$$data) refers (Special) to libinit2.o(.ARM.Collect$$libinit$$00000010) for __rt_lib_init_lc_ctype_2
    lc_ctype_c.o(locale$$code) refers (Special) to libinit2.o(.ARM.Collect$$libinit$$00000010) for __rt_lib_init_lc_ctype_2
    lc_ctype_c.o(locale$$code) refers to strcmpv7m.o(.text) for strcmp
    lc_ctype_c.o(locale$$code) refers to lc_ctype_c.o(locale$$data) for __lcctype_c_name
    exit.o(.text) refers to rtexit.o(.ARM.Collect$$rtexit$$00000000) for __rt_exit
    libinit.o(.ARM.Collect$$libinit$$00000000) refers (Special) to libinit2.o(.ARM.Collect$$libinit$$0000002C) for __rt_lib_init_alloca_1
    libinit.o(.ARM.Collect$$libinit$$00000000) refers (Special) to libinit2.o(.ARM.Collect$$libinit$$0000002A) for __rt_lib_init_argv_1
    libinit.o(.ARM.Collect$$libinit$$00000000) refers (Special) to libinit2.o(.ARM.Collect$$libinit$$00000019) for __rt_lib_init_atexit_1
    libinit.o(.ARM.Collect$$libinit$$00000000) refers (Special) to libinit2.o(.ARM.Collect$$libinit$$0000001F) for __rt_lib_init_clock_1
    libinit.o(.ARM.Collect$$libinit$$00000000) refers (Special) to libinit2.o(.ARM.Collect$$libinit$$00000030) for __rt_lib_init_cpp_1
    libinit.o(.ARM.Collect$$libinit$$00000000) refers (Special) to libinit2.o(.ARM.Collect$$libinit$$0000002E) for __rt_lib_init_exceptions_1
    libinit.o(.ARM.Collect$$libinit$$00000000) refers (Special) to libinit2.o(.ARM.Collect$$libinit$$00000001) for __rt_lib_init_fp_1
    libinit.o(.ARM.Collect$$libinit$$00000000) refers (Special) to libinit2.o(.ARM.Collect$$libinit$$0000001D) for __rt_lib_init_fp_trap_1
    libinit.o(.ARM.Collect$$libinit$$00000000) refers (Special) to libinit2.o(.ARM.Collect$$libinit$$00000021) for __rt_lib_init_getenv_1
    libinit.o(.ARM.Collect$$libinit$$00000000) refers (Special) to libinit2.o(.ARM.Collect$$libinit$$00000008) for __rt_lib_init_heap_1
    libinit.o(.ARM.Collect$$libinit$$00000000) refers (Special) to libinit2.o(.ARM.Collect$$libinit$$0000000F) for __rt_lib_init_lc_collate_1
    libinit.o(.ARM.Collect$$libinit$$00000000) refers (Special) to libinit2.o(.ARM.Collect$$libinit$$00000011) for __rt_lib_init_lc_ctype_1
    libinit.o(.ARM.Collect$$libinit$$00000000) refers (Special) to libinit2.o(.ARM.Collect$$libinit$$00000013) for __rt_lib_init_lc_monetary_1
    libinit.o(.ARM.Collect$$libinit$$00000000) refers (Special) to libinit2.o(.ARM.Collect$$libinit$$00000015) for __rt_lib_init_lc_numeric_1
    libinit.o(.ARM.Collect$$libinit$$00000000) refers (Special) to libinit2.o(.ARM.Collect$$libinit$$00000017) for __rt_lib_init_lc_time_1
    libinit.o(.ARM.Collect$$libinit$$00000000) refers (Special) to libinit2.o(.ARM.Collect$$libinit$$0000000C) for __rt_lib_init_rand_1
    libinit.o(.ARM.Collect$$libinit$$00000000) refers (Special) to libinit2.o(.ARM.Collect$$libinit$$00000031) for __rt_lib_init_return
    libinit.o(.ARM.Collect$$libinit$$00000000) refers (Special) to libinit2.o(.ARM.Collect$$libinit$$0000001B) for __rt_lib_init_signal_1
    libinit.o(.ARM.Collect$$libinit$$00000000) refers (Special) to libinit2.o(.ARM.Collect$$libinit$$00000023) for __rt_lib_init_stdio_1
    libinit.o(.ARM.Collect$$libinit$$00000000) refers (Special) to libinit2.o(.ARM.Collect$$libinit$$0000000A) for __rt_lib_init_user_alloc_1
    rtexit.o(.ARM.Collect$$rtexit$$00000000) refers (Special) to rtexit2.o(.ARM.Collect$$rtexit$$00000004) for __rt_exit_exit
    rtexit.o(.ARM.Collect$$rtexit$$00000000) refers (Special) to rtexit2.o(.ARM.Collect$$rtexit$$00000003) for __rt_exit_ls
    rtexit.o(.ARM.Collect$$rtexit$$00000000) refers (Special) to rtexit2.o(.ARM.Collect$$rtexit$$00000002) for __rt_exit_prels_1
    rtexit.o(.ARM.exidx) refers (Special) to rtexit2.o(.ARM.Collect$$rtexit$$00000004) for __rt_exit_exit
    rtexit.o(.ARM.exidx) refers (Special) to rtexit2.o(.ARM.Collect$$rtexit$$00000003) for __rt_exit_ls
    rtexit.o(.ARM.exidx) refers (Special) to rtexit2.o(.ARM.Collect$$rtexit$$00000002) for __rt_exit_prels_1
    rtexit.o(.ARM.exidx) refers to rtexit.o(.ARM.Collect$$rtexit$$00000000) for .ARM.Collect$$rtexit$$00000000
    libinit2.o(.ARM.Collect$$libinit$$00000001) refers to fpinit.o(x$fpl$fpinit) for _fp_init
    libinit2.o(.ARM.Collect$$libinit$$0000000D) refers (Weak) to rt_locale_intlibspace.o(.text) for __rt_locale
    libinit2.o(.ARM.Collect$$libinit$$0000000E) refers to libinit2.o(.ARM.Collect$$libinit$$0000000D) for .ARM.Collect$$libinit$$0000000D
    libinit2.o(.ARM.Collect$$libinit$$00000010) refers to libinit2.o(.ARM.Collect$$libinit$$0000000D) for .ARM.Collect$$libinit$$0000000D
    libinit2.o(.ARM.Collect$$libinit$$00000010) refers (Weak) to lc_ctype_c.o(locale$$code) for _get_lc_ctype
    libinit2.o(.ARM.Collect$$libinit$$00000012) refers to libinit2.o(.ARM.Collect$$libinit$$0000000D) for .ARM.Collect$$libinit$$0000000D
    libinit2.o(.ARM.Collect$$libinit$$00000014) refers to libinit2.o(.ARM.Collect$$libinit$$0000000D) for .ARM.Collect$$libinit$$0000000D
    libinit2.o(.ARM.Collect$$libinit$$00000016) refers to libinit2.o(.ARM.Collect$$libinit$$0000000D) for .ARM.Collect$$libinit$$0000000D
    libinit2.o(.ARM.Collect$$libinit$$00000024) refers to argv_veneer.o(.emb_text) for __ARM_argv_veneer
    libinit2.o(.ARM.Collect$$libinit$$00000025) refers to argv_veneer.o(.emb_text) for __ARM_argv_veneer
    rtexit2.o(.ARM.Collect$$rtexit$$00000003) refers to libshutdown.o(.ARM.Collect$$libshutdown$$00000000) for __rt_lib_shutdown
    rtexit2.o(.ARM.Collect$$rtexit$$00000004) refers to sys_exit.o(.text) for _sys_exit
    rtexit2.o(.ARM.exidx) refers to rtexit2.o(.ARM.Collect$$rtexit$$00000001) for .ARM.Collect$$rtexit$$00000001
    rtexit2.o(.ARM.exidx) refers to rtexit2.o(.ARM.Collect$$rtexit$$00000003) for .ARM.Collect$$rtexit$$00000003
    rtexit2.o(.ARM.exidx) refers to rtexit2.o(.ARM.Collect$$rtexit$$00000004) for .ARM.Collect$$rtexit$$00000004
    argv_veneer.o(.emb_text) refers to no_argv.o(.text) for __ARM_get_argv
    sys_exit.o(.text) refers (Special) to use_no_semi.o(.text) for __I$use$semihosting
    sys_exit.o(.text) refers (Special) to indicate_semi.o(.text) for __semihosting_library_function
    _get_argv_nomalloc.o(.text) refers (Special) to hrguard.o(.text) for __heap_region$guard
    _get_argv_nomalloc.o(.text) refers to defsig_rtmem_outer.o(.text) for __rt_SIGRTMEM
    _get_argv_nomalloc.o(.text) refers to sys_command.o(.text) for _sys_command_string
    libshutdown.o(.ARM.Collect$$libshutdown$$00000000) refers (Special) to libshutdown2.o(.ARM.Collect$$libshutdown$$00000006) for __rt_lib_shutdown_fp_trap_1
    libshutdown.o(.ARM.Collect$$libshutdown$$00000000) refers (Special) to libshutdown2.o(.ARM.Collect$$libshutdown$$0000000E) for __rt_lib_shutdown_heap_1
    libshutdown.o(.ARM.Collect$$libshutdown$$00000000) refers (Special) to libshutdown2.o(.ARM.Collect$$libshutdown$$0000000F) for __rt_lib_shutdown_return
    libshutdown.o(.ARM.Collect$$libshutdown$$00000000) refers (Special) to libshutdown2.o(.ARM.Collect$$libshutdown$$00000009) for __rt_lib_shutdown_signal_1
    libshutdown.o(.ARM.Collect$$libshutdown$$00000000) refers (Special) to libshutdown2.o(.ARM.Collect$$libshutdown$$00000003) for __rt_lib_shutdown_stdio_1
    libshutdown.o(.ARM.Collect$$libshutdown$$00000000) refers (Special) to libshutdown2.o(.ARM.Collect$$libshutdown$$0000000B) for __rt_lib_shutdown_user_alloc_1
    sys_command.o(.text) refers (Special) to use_no_semi.o(.text) for __I$use$semihosting
    sys_command.o(.text) refers (Special) to indicate_semi.o(.text) for __semihosting_library_function
    defsig_rtmem_outer.o(.text) refers to defsig_rtmem_inner.o(.text) for __rt_SIGRTMEM_inner
    defsig_rtmem_outer.o(.text) refers to defsig_exit.o(.text) for __sig_exit
    defsig_rtmem_formal.o(.text) refers to rt_raise.o(.text) for __rt_raise
    rt_raise.o(.text) refers to __raise.o(.text) for __raise
    rt_raise.o(.text) refers to sys_exit.o(.text) for _sys_exit
    defsig_exit.o(.text) refers to sys_exit.o(.text) for _sys_exit
    defsig_rtmem_inner.o(.text) refers to defsig_general.o(.text) for __default_signal_display
    __raise.o(.text) refers to defsig.o(CL$$defsig) for __default_signal_handler
    defsig_general.o(.text) refers to sys_wrch.o(.text) for _ttywrch
    sys_wrch.o(.text) refers (Special) to use_no_semi.o(.text) for __I$use$semihosting
    sys_wrch.o(.text) refers (Special) to indicate_semi.o(.text) for __semihosting_library_function
    defsig.o(CL$$defsig) refers to defsig_rtmem_inner.o(.text) for __rt_SIGRTMEM_inner
    defsig_abrt_inner.o(.text) refers to defsig_general.o(.text) for __default_signal_display
    defsig_fpe_inner.o(.text) refers to defsig_general.o(.text) for __default_signal_display
    defsig_rtred_inner.o(.text) refers to defsig_general.o(.text) for __default_signal_display
    defsig_stak_inner.o(.text) refers to defsig_general.o(.text) for __default_signal_display
    defsig_pvfn_inner.o(.text) refers to defsig_general.o(.text) for __default_signal_display
    defsig_cppl_inner.o(.text) refers to defsig_general.o(.text) for __default_signal_display
    defsig_segv_inner.o(.text) refers to defsig_general.o(.text) for __default_signal_display
    defsig_other.o(.text) refers to defsig_general.o(.text) for __default_signal_display


==============================================================================

Removing Unused input sections from the image.

    Removing system_stm32f4xx.o(.emb_text), (8 bytes).
    Removing misc.o(.emb_text), (8 bytes).
    Removing stm32f4xx_adc.o(.emb_text), (8 bytes).
    Removing stm32f4xx_adc.o(.text), (4068 bytes).
    Removing stm32f4xx_adc.o(.constdata), (72 bytes).
    Removing stm32f4xx_can.o(.emb_text), (8 bytes).
    Removing stm32f4xx_can.o(.text), (4256 bytes).
    Removing stm32f4xx_can.o(.constdata), (72 bytes).
    Removing stm32f4xx_crc.o(.emb_text), (8 bytes).
    Removing stm32f4xx_crc.o(.text), (72 bytes).
    Removing stm32f4xx_cryp.o(.emb_text), (8 bytes).
    Removing stm32f4xx_cryp.o(.text), (980 bytes).
    Removing stm32f4xx_cryp.o(.constdata), (72 bytes).
    Removing stm32f4xx_cryp_aes.o(.emb_text), (8 bytes).
    Removing stm32f4xx_cryp_aes.o(.text), (1524 bytes).
    Removing stm32f4xx_cryp_des.o(.emb_text), (8 bytes).
    Removing stm32f4xx_cryp_des.o(.text), (468 bytes).
    Removing stm32f4xx_cryp_tdes.o(.emb_text), (8 bytes).
    Removing stm32f4xx_cryp_tdes.o(.text), (532 bytes).
    Removing stm32f4xx_dac.o(.emb_text), (8 bytes).
    Removing stm32f4xx_dac.o(.text), (1476 bytes).
    Removing stm32f4xx_dac.o(.constdata), (72 bytes).
    Removing stm32f4xx_dbgmcu.o(.emb_text), (8 bytes).
    Removing stm32f4xx_dbgmcu.o(.text), (232 bytes).
    Removing stm32f4xx_dbgmcu.o(.constdata), (76 bytes).
    Removing stm32f4xx_dcmi.o(.emb_text), (8 bytes).
    Removing stm32f4xx_dcmi.o(.text), (852 bytes).
    Removing stm32f4xx_dcmi.o(.constdata), (72 bytes).
    Removing stm32f4xx_dma.o(.emb_text), (8 bytes).
    Removing stm32f4xx_exti.o(.emb_text), (8 bytes).
    Removing stm32f4xx_flash.o(.emb_text), (8 bytes).
    Removing stm32f4xx_flash.o(.text), (1868 bytes).
    Removing stm32f4xx_flash.o(.constdata), (72 bytes).
    Removing stm32f4xx_fsmc.o(.emb_text), (8 bytes).
    Removing stm32f4xx_fsmc.o(.text), (3380 bytes).
    Removing stm32f4xx_fsmc.o(.constdata), (72 bytes).
    Removing stm32f4xx_gpio.o(.emb_text), (8 bytes).
    Removing stm32f4xx_hash.o(.emb_text), (8 bytes).
    Removing stm32f4xx_hash.o(.text), (796 bytes).
    Removing stm32f4xx_hash.o(.constdata), (72 bytes).
    Removing stm32f4xx_hash_md5.o(.emb_text), (8 bytes).
    Removing stm32f4xx_hash_md5.o(.text), (534 bytes).
    Removing stm32f4xx_hash_sha1.o(.emb_text), (8 bytes).
    Removing stm32f4xx_hash_sha1.o(.text), (548 bytes).
    Removing stm32f4xx_i2c.o(.emb_text), (8 bytes).
    Removing stm32f4xx_i2c.o(.text), (3312 bytes).
    Removing stm32f4xx_i2c.o(.constdata), (72 bytes).
    Removing stm32f4xx_iwdg.o(.emb_text), (8 bytes).
    Removing stm32f4xx_iwdg.o(.text), (172 bytes).
    Removing stm32f4xx_iwdg.o(.constdata), (72 bytes).
    Removing stm32f4xx_pwr.o(.emb_text), (8 bytes).
    Removing stm32f4xx_pwr.o(.text), (528 bytes).
    Removing stm32f4xx_pwr.o(.constdata), (72 bytes).
    Removing stm32f4xx_rcc.o(.emb_text), (8 bytes).
    Removing stm32f4xx_rng.o(.emb_text), (8 bytes).
    Removing stm32f4xx_rng.o(.text), (308 bytes).
    Removing stm32f4xx_rng.o(.constdata), (72 bytes).
    Removing stm32f4xx_rtc.o(.emb_text), (8 bytes).
    Removing stm32f4xx_rtc.o(.text), (5876 bytes).
    Removing stm32f4xx_rtc.o(.constdata), (72 bytes).
    Removing stm32f4xx_sdio.o(.emb_text), (8 bytes).
    Removing stm32f4xx_spi.o(.emb_text), (8 bytes).
    Removing stm32f4xx_spi.o(.text), (2888 bytes).
    Removing stm32f4xx_spi.o(.constdata), (72 bytes).
    Removing stm32f4xx_syscfg.o(.emb_text), (8 bytes).
    Removing stm32f4xx_tim.o(.emb_text), (8 bytes).
    Removing stm32f4xx_tim.o(.text), (12780 bytes).
    Removing stm32f4xx_tim.o(.constdata), (72 bytes).
    Removing stm32f4xx_usart.o(.emb_text), (8 bytes).
    Removing stm32f4xx_wwdg.o(.emb_text), (8 bytes).
    Removing stm32f4xx_wwdg.o(.text), (240 bytes).
    Removing stm32f4xx_wwdg.o(.constdata), (72 bytes).
    Removing board.o(.emb_text), (8 bytes).
    Removing platform.o(.emb_text), (8 bytes).
    Removing usart.o(.emb_text), (8 bytes).
    Removing ext_sram.o(.emb_text), (8 bytes).
    Removing ext_sram.o(.text), (126 bytes).
    Removing stm32f4xx_it.o(.emb_text), (8 bytes).
    Removing stm32f4xx_exit.o(.emb_text), (8 bytes).
    Removing stm32f4xx_exit.o(.text), (852 bytes).
    Removing stm32f4xx_exit.o(.data), (4 bytes).
    Removing stm32f4xx_sd.o(.emb_text), (8 bytes).
    Removing stm32f4xx_eth.o(.emb_text), (8 bytes).
    Removing application.o(.emb_text), (8 bytes).
    Removing exit.o(.emb_text), (8 bytes).
    Removing exit.o(.text), (184 bytes).
    Removing exit.o(.bss), (1312 bytes).
    Removing startup.o(.emb_text), (8 bytes).
    Removing mempool.o(.text), (1088 bytes).
    Removing mempool.o(.constdata), (62 bytes).
    Removing mempool.o(.data), (8 bytes).
    Removing backtrace.o(.text), (2 bytes).
    Removing div0.o(.text), (4 bytes).
    Removing showmem.o(.text), (164 bytes).
    Removing showmem.o(.constdata), (18 bytes).
    Removing completion.o(.text), (584 bytes).
    Removing completion.o(.constdata), (57 bytes).
    Removing pipe.o(.text), (1328 bytes).
    Removing pipe.o(.constdata), (86 bytes).
    Removing portal.o(.text), (884 bytes).
    Removing portal.o(.constdata), (95 bytes).
    Removing ringbuffer.o(.text), (1344 bytes).
    Removing ringbuffer.o(.constdata), (151 bytes).
    Removing sys.o(.text), (36 bytes).

104 unused section(s) (total 57651 bytes) removed from the image.

==============================================================================

Image Symbol Table

    Local Symbols

    Symbol Name                              Value     Ov Type        Size  Object(Section)

    ../STM32F4xx_Libraries/CMSIS/ST/STM32F4xx/Source/Templates/arm/startup_stm32f4xx.s 0x00000000   Number         0  startup_stm32f4xx.o ABSOLUTE
    ../STM32F4xx_Libraries/CMSIS/ST/STM32F4xx/Source/Templates/system_stm32f4xx.c 0x00000000   Number         0  system_stm32f4xx.o ABSOLUTE
    ../STM32F4xx_Libraries/STM32F4xx_StdPeriph_Driver/src/misc.c 0x00000000   Number         0  misc.o ABSOLUTE
    ../STM32F4xx_Libraries/STM32F4xx_StdPeriph_Driver/src/stm32f4xx_adc.c 0x00000000   Number         0  stm32f4xx_adc.o ABSOLUTE
    ../STM32F4xx_Libraries/STM32F4xx_StdPeriph_Driver/src/stm32f4xx_can.c 0x00000000   Number         0  stm32f4xx_can.o ABSOLUTE
    ../STM32F4xx_Libraries/STM32F4xx_StdPeriph_Driver/src/stm32f4xx_crc.c 0x00000000   Number         0  stm32f4xx_crc.o ABSOLUTE
    ../STM32F4xx_Libraries/STM32F4xx_StdPeriph_Driver/src/stm32f4xx_cryp.c 0x00000000   Number         0  stm32f4xx_cryp.o ABSOLUTE
    ../STM32F4xx_Libraries/STM32F4xx_StdPeriph_Driver/src/stm32f4xx_cryp_aes.c 0x00000000   Number         0  stm32f4xx_cryp_aes.o ABSOLUTE
    ../STM32F4xx_Libraries/STM32F4xx_StdPeriph_Driver/src/stm32f4xx_cryp_des.c 0x00000000   Number         0  stm32f4xx_cryp_des.o ABSOLUTE
    ../STM32F4xx_Libraries/STM32F4xx_StdPeriph_Driver/src/stm32f4xx_cryp_tdes.c 0x00000000   Number         0  stm32f4xx_cryp_tdes.o ABSOLUTE
    ../STM32F4xx_Libraries/STM32F4xx_StdPeriph_Driver/src/stm32f4xx_dac.c 0x00000000   Number         0  stm32f4xx_dac.o ABSOLUTE
    ../STM32F4xx_Libraries/STM32F4xx_StdPeriph_Driver/src/stm32f4xx_dbgmcu.c 0x00000000   Number         0  stm32f4xx_dbgmcu.o ABSOLUTE
    ../STM32F4xx_Libraries/STM32F4xx_StdPeriph_Driver/src/stm32f4xx_dcmi.c 0x00000000   Number         0  stm32f4xx_dcmi.o ABSOLUTE
    ../STM32F4xx_Libraries/STM32F4xx_StdPeriph_Driver/src/stm32f4xx_dma.c 0x00000000   Number         0  stm32f4xx_dma.o ABSOLUTE
    ../STM32F4xx_Libraries/STM32F4xx_StdPeriph_Driver/src/stm32f4xx_exti.c 0x00000000   Number         0  stm32f4xx_exti.o ABSOLUTE
    ../STM32F4xx_Libraries/STM32F4xx_StdPeriph_Driver/src/stm32f4xx_flash.c 0x00000000   Number         0  stm32f4xx_flash.o ABSOLUTE
    ../STM32F4xx_Libraries/STM32F4xx_StdPeriph_Driver/src/stm32f4xx_fsmc.c 0x00000000   Number         0  stm32f4xx_fsmc.o ABSOLUTE
    ../STM32F4xx_Libraries/STM32F4xx_StdPeriph_Driver/src/stm32f4xx_gpio.c 0x00000000   Number         0  stm32f4xx_gpio.o ABSOLUTE
    ../STM32F4xx_Libraries/STM32F4xx_StdPeriph_Driver/src/stm32f4xx_hash.c 0x00000000   Number         0  stm32f4xx_hash.o ABSOLUTE
    ../STM32F4xx_Libraries/STM32F4xx_StdPeriph_Driver/src/stm32f4xx_hash_md5.c 0x00000000   Number         0  stm32f4xx_hash_md5.o ABSOLUTE
    ../STM32F4xx_Libraries/STM32F4xx_StdPeriph_Driver/src/stm32f4xx_hash_sha1.c 0x00000000   Number         0  stm32f4xx_hash_sha1.o ABSOLUTE
    ../STM32F4xx_Libraries/STM32F4xx_StdPeriph_Driver/src/stm32f4xx_i2c.c 0x00000000   Number         0  stm32f4xx_i2c.o ABSOLUTE
    ../STM32F4xx_Libraries/STM32F4xx_StdPeriph_Driver/src/stm32f4xx_iwdg.c 0x00000000   Number         0  stm32f4xx_iwdg.o ABSOLUTE
    ../STM32F4xx_Libraries/STM32F4xx_StdPeriph_Driver/src/stm32f4xx_pwr.c 0x00000000   Number         0  stm32f4xx_pwr.o ABSOLUTE
    ../STM32F4xx_Libraries/STM32F4xx_StdPeriph_Driver/src/stm32f4xx_rcc.c 0x00000000   Number         0  stm32f4xx_rcc.o ABSOLUTE
    ../STM32F4xx_Libraries/STM32F4xx_StdPeriph_Driver/src/stm32f4xx_rng.c 0x00000000   Number         0  stm32f4xx_rng.o ABSOLUTE
    ../STM32F4xx_Libraries/STM32F4xx_StdPeriph_Driver/src/stm32f4xx_rtc.c 0x00000000   Number         0  stm32f4xx_rtc.o ABSOLUTE
    ../STM32F4xx_Libraries/STM32F4xx_StdPeriph_Driver/src/stm32f4xx_sdio.c 0x00000000   Number         0  stm32f4xx_sdio.o ABSOLUTE
    ../STM32F4xx_Libraries/STM32F4xx_StdPeriph_Driver/src/stm32f4xx_spi.c 0x00000000   Number         0  stm32f4xx_spi.o ABSOLUTE
    ../STM32F4xx_Libraries/STM32F4xx_StdPeriph_Driver/src/stm32f4xx_syscfg.c 0x00000000   Number         0  stm32f4xx_syscfg.o ABSOLUTE
    ../STM32F4xx_Libraries/STM32F4xx_StdPeriph_Driver/src/stm32f4xx_tim.c 0x00000000   Number         0  stm32f4xx_tim.o ABSOLUTE
    ../STM32F4xx_Libraries/STM32F4xx_StdPeriph_Driver/src/stm32f4xx_usart.c 0x00000000   Number         0  stm32f4xx_usart.o ABSOLUTE
    ../STM32F4xx_Libraries/STM32F4xx_StdPeriph_Driver/src/stm32f4xx_wwdg.c 0x00000000   Number         0  stm32f4xx_wwdg.o ABSOLUTE
    ../clib/angel/boardlib.s                 0x00000000   Number         0  boardinit1.o ABSOLUTE
    ../clib/angel/boardlib.s                 0x00000000   Number         0  boardinit2.o ABSOLUTE
    ../clib/angel/boardlib.s                 0x00000000   Number         0  boardinit3.o ABSOLUTE
    ../clib/angel/boardlib.s                 0x00000000   Number         0  boardshut.o ABSOLUTE
    ../clib/angel/dczerorl2.s                0x00000000   Number         0  __dczerorl2.o ABSOLUTE
    ../clib/angel/handlers.s                 0x00000000   Number         0  __scatter_zi.o ABSOLUTE
    ../clib/angel/kernel.s                   0x00000000   Number         0  rtexit2.o ABSOLUTE
    ../clib/angel/kernel.s                   0x00000000   Number         0  rtentry.o ABSOLUTE
    ../clib/angel/kernel.s                   0x00000000   Number         0  rtentry4.o ABSOLUTE
    ../clib/angel/kernel.s                   0x00000000   Number         0  rtentry2.o ABSOLUTE
    ../clib/angel/kernel.s                   0x00000000   Number         0  rtexit.o ABSOLUTE
    ../clib/angel/rt.s                       0x00000000   Number         0  rt_errno_addr.o ABSOLUTE
    ../clib/angel/rt.s                       0x00000000   Number         0  rt_locale.o ABSOLUTE
    ../clib/angel/rt.s                       0x00000000   Number         0  rt_errno_addr_intlibspace.o ABSOLUTE
    ../clib/angel/rt.s                       0x00000000   Number         0  rt_ctype_table.o ABSOLUTE
    ../clib/angel/rt.s                       0x00000000   Number         0  rt_locale_intlibspace.o ABSOLUTE
    ../clib/angel/rt.s                       0x00000000   Number         0  rt_raise.o ABSOLUTE
    ../clib/angel/scatter.s                  0x00000000   Number         0  __scatter.o ABSOLUTE
    ../clib/angel/startup.s                  0x00000000   Number         0  __main.o ABSOLUTE
    ../clib/angel/sys.s                      0x00000000   Number         0  libspace.o ABSOLUTE
    ../clib/angel/sys.s                      0x00000000   Number         0  sys_stackheap_outer.o ABSOLUTE
    ../clib/angel/sys.s                      0x00000000   Number         0  indicate_semi.o ABSOLUTE
    ../clib/angel/sys.s                      0x00000000   Number         0  use_no_semi.o ABSOLUTE
    ../clib/angel/sysapp.c                   0x00000000   Number         0  sys_exit.o ABSOLUTE
    ../clib/angel/sysapp.c                   0x00000000   Number         0  sys_command.o ABSOLUTE
    ../clib/angel/sysapp.c                   0x00000000   Number         0  sys_wrch.o ABSOLUTE
    ../clib/armsys.c                         0x00000000   Number         0  _get_argv_nomalloc.o ABSOLUTE
    ../clib/armsys.c                         0x00000000   Number         0  argv_veneer.o ABSOLUTE
    ../clib/armsys.c                         0x00000000   Number         0  argv_veneer.o ABSOLUTE
    ../clib/armsys.c                         0x00000000   Number         0  no_argv.o ABSOLUTE
    ../clib/heapalloc.c                      0x00000000   Number         0  hrguard.o ABSOLUTE
    ../clib/heapaux.c                        0x00000000   Number         0  heapauxi.o ABSOLUTE
    ../clib/libinit.s                        0x00000000   Number         0  libinit2.o ABSOLUTE
    ../clib/libinit.s                        0x00000000   Number         0  libinit.o ABSOLUTE
    ../clib/libinit.s                        0x00000000   Number         0  libshutdown2.o ABSOLUTE
    ../clib/libinit.s                        0x00000000   Number         0  libshutdown.o ABSOLUTE
    ../clib/locale.s                         0x00000000   Number         0  lc_ctype_c.o ABSOLUTE
    ../clib/memcpset.s                       0x00000000   Number         0  rt_memclr.o ABSOLUTE
    ../clib/memcpset.s                       0x00000000   Number         0  rt_memcpy_w.o ABSOLUTE
    ../clib/memcpset.s                       0x00000000   Number         0  rt_memcpy_v6.o ABSOLUTE
    ../clib/memcpset.s                       0x00000000   Number         0  rt_memclr_w.o ABSOLUTE
    ../clib/memcpset.s                       0x00000000   Number         0  strcmpv7m.o ABSOLUTE
    ../clib/memcpset.s                       0x00000000   Number         0  strncpy.o ABSOLUTE
    ../clib/scanf.c                          0x00000000   Number         0  _strtoul.o ABSOLUTE
    ../clib/scanf.c                          0x00000000   Number         0  strtol.o ABSOLUTE
    ../clib/scanf.c                          0x00000000   Number         0  _chval.o ABSOLUTE
    ../clib/scanf.c                          0x00000000   Number         0  atoi.o ABSOLUTE
    ../clib/signal.c                         0x00000000   Number         0  defsig_stak_inner.o ABSOLUTE
    ../clib/signal.c                         0x00000000   Number         0  defsig_exit.o ABSOLUTE
    ../clib/signal.c                         0x00000000   Number         0  defsig_rtmem_inner.o ABSOLUTE
    ../clib/signal.c                         0x00000000   Number         0  __raise.o ABSOLUTE
    ../clib/signal.c                         0x00000000   Number         0  defsig_other.o ABSOLUTE
    ../clib/signal.c                         0x00000000   Number         0  defsig_segv_inner.o ABSOLUTE
    ../clib/signal.c                         0x00000000   Number         0  defsig_general.o ABSOLUTE
    ../clib/signal.c                         0x00000000   Number         0  defsig_pvfn_inner.o ABSOLUTE
    ../clib/signal.c                         0x00000000   Number         0  defsig_abrt_inner.o ABSOLUTE
    ../clib/signal.c                         0x00000000   Number         0  defsig_cppl_inner.o ABSOLUTE
    ../clib/signal.c                         0x00000000   Number         0  defsig_fpe_inner.o ABSOLUTE
    ../clib/signal.c                         0x00000000   Number         0  defsig_rtmem_outer.o ABSOLUTE
    ../clib/signal.c                         0x00000000   Number         0  defsig_rtmem_formal.o ABSOLUTE
    ../clib/signal.c                         0x00000000   Number         0  defsig_rtred_inner.o ABSOLUTE
    ../clib/signal.s                         0x00000000   Number         0  defsig.o ABSOLUTE
    ../clib/stdlib.c                         0x00000000   Number         0  exit.o ABSOLUTE
    ../clib/string.c                         0x00000000   Number         0  memcmp.o ABSOLUTE
    ../clib/string.c                         0x00000000   Number         0  strrchr.o ABSOLUTE
    ../clib/string.c                         0x00000000   Number         0  strncmp.o ABSOLUTE
    ../clib/string.c                         0x00000000   Number         0  strlen.o ABSOLUTE
    ../clib/string.c                         0x00000000   Number         0  strcpy.o ABSOLUTE
    ../clib/time.c                           0x00000000   Number         0  mktime.o ABSOLUTE
    ../clib/time.c                           0x00000000   Number         0  _monlen.o ABSOLUTE
    ../drivers/board.c                       0x00000000   Number         0  board.o ABSOLUTE
    ../drivers/ext_sram.c                    0x00000000   Number         0  ext_sram.o ABSOLUTE
    ../drivers/platform.c                    0x00000000   Number         0  platform.o ABSOLUTE
    ../drivers/stm32f4xx_eth.c               0x00000000   Number         0  stm32f4xx_eth.o ABSOLUTE
    ../drivers/stm32f4xx_exit.c              0x00000000   Number         0  stm32f4xx_exit.o ABSOLUTE
    ../drivers/stm32f4xx_it.c                0x00000000   Number         0  stm32f4xx_it.o ABSOLUTE
    ../drivers/stm32f4xx_sd.c                0x00000000   Number         0  stm32f4xx_sd.o ABSOLUTE
    ../drivers/usart.c                       0x00000000   Number         0  usart.o ABSOLUTE
    ../fplib/fpinit.s                        0x00000000   Number         0  fpinit.o ABSOLUTE
    ../rt-thread-1.2.1/components/dfs/filesystems/elmfat/dfs_elm.c 0x00000000   Number         0  dfs_elm.o ABSOLUTE
    ../rt-thread-1.2.1/components/dfs/filesystems/elmfat/ff.c 0x00000000   Number         0  ff.o ABSOLUTE
    ../rt-thread-1.2.1/components/dfs/src/dfs.c 0x00000000   Number         0  dfs.o ABSOLUTE
    ../rt-thread-1.2.1/components/dfs/src/dfs_file.c 0x00000000   Number         0  dfs_file.o ABSOLUTE
    ../rt-thread-1.2.1/components/dfs/src/dfs_fs.c 0x00000000   Number         0  dfs_fs.o ABSOLUTE
    ../rt-thread-1.2.1/components/dfs/src/dfs_posix.c 0x00000000   Number         0  dfs_posix.o ABSOLUTE
    ../rt-thread-1.2.1/components/drivers/sdio/block_dev.c 0x00000000   Number         0  block_dev.o ABSOLUTE
    ../rt-thread-1.2.1/components/drivers/sdio/mmcsd_core.c 0x00000000   Number         0  mmcsd_core.o ABSOLUTE
    ../rt-thread-1.2.1/components/drivers/sdio/sd.c 0x00000000   Number         0  sd.o ABSOLUTE
    ../rt-thread-1.2.1/components/drivers/sdio/sdio.c 0x00000000   Number         0  sdio.o ABSOLUTE
    ../rt-thread-1.2.1/components/drivers/serial/serial.c 0x00000000   Number         0  serial.o ABSOLUTE
    ../rt-thread-1.2.1/components/drivers/src/completion.c 0x00000000   Number         0  completion.o ABSOLUTE
    ../rt-thread-1.2.1/components/drivers/src/dataqueue.c 0x00000000   Number         0  dataqueue.o ABSOLUTE
    ../rt-thread-1.2.1/components/drivers/src/pipe.c 0x00000000   Number         0  pipe.o ABSOLUTE
    ../rt-thread-1.2.1/components/drivers/src/portal.c 0x00000000   Number         0  portal.o ABSOLUTE
    ../rt-thread-1.2.1/components/drivers/src/ringbuffer.c 0x00000000   Number         0  ringbuffer.o ABSOLUTE
    ../rt-thread-1.2.1/components/finsh/cmd.c 0x00000000   Number         0  cmd.o ABSOLUTE
    ../rt-thread-1.2.1/components/finsh/finsh_compiler.c 0x00000000   Number         0  finsh_compiler.o ABSOLUTE
    ../rt-thread-1.2.1/components/finsh/finsh_error.c 0x00000000   Number         0  finsh_error.o ABSOLUTE
    ../rt-thread-1.2.1/components/finsh/finsh_heap.c 0x00000000   Number         0  finsh_heap.o ABSOLUTE
    ../rt-thread-1.2.1/components/finsh/finsh_init.c 0x00000000   Number         0  finsh_init.o ABSOLUTE
    ../rt-thread-1.2.1/components/finsh/finsh_node.c 0x00000000   Number         0  finsh_node.o ABSOLUTE
    ../rt-thread-1.2.1/components/finsh/finsh_ops.c 0x00000000   Number         0  finsh_ops.o ABSOLUTE
    ../rt-thread-1.2.1/components/finsh/finsh_parser.c 0x00000000   Number         0  finsh_parser.o ABSOLUTE
    ../rt-thread-1.2.1/components/finsh/finsh_token.c 0x00000000   Number         0  finsh_token.o ABSOLUTE
    ../rt-thread-1.2.1/components/finsh/finsh_var.c 0x00000000   Number         0  finsh_var.o ABSOLUTE
    ../rt-thread-1.2.1/components/finsh/finsh_vm.c 0x00000000   Number         0  finsh_vm.o ABSOLUTE
    ../rt-thread-1.2.1/components/finsh/shell.c 0x00000000   Number         0  shell.o ABSOLUTE
    ../rt-thread-1.2.1/components/finsh/symbol.c 0x00000000   Number         0  symbol.o ABSOLUTE
    ../rt-thread-1.2.1/components/init/components.c 0x00000000   Number         0  components.o ABSOLUTE
    ../rt-thread-1.2.1/components/net/lwip-1.4.1/src/api/api_lib.c 0x00000000   Number         0  api_lib.o ABSOLUTE
    ../rt-thread-1.2.1/components/net/lwip-1.4.1/src/api/api_msg.c 0x00000000   Number         0  api_msg.o ABSOLUTE
    ../rt-thread-1.2.1/components/net/lwip-1.4.1/src/api/err.c 0x00000000   Number         0  err.o ABSOLUTE
    ../rt-thread-1.2.1/components/net/lwip-1.4.1/src/api/netbuf.c 0x00000000   Number         0  netbuf.o ABSOLUTE
    ../rt-thread-1.2.1/components/net/lwip-1.4.1/src/api/netdb.c 0x00000000   Number         0  netdb.o ABSOLUTE
    ../rt-thread-1.2.1/components/net/lwip-1.4.1/src/api/netifapi.c 0x00000000   Number         0  netifapi.o ABSOLUTE
    ../rt-thread-1.2.1/components/net/lwip-1.4.1/src/api/sockets.c 0x00000000   Number         0  sockets.o ABSOLUTE
    ../rt-thread-1.2.1/components/net/lwip-1.4.1/src/api/tcpip.c 0x00000000   Number         0  tcpip.o ABSOLUTE
    ../rt-thread-1.2.1/components/net/lwip-1.4.1/src/arch/sys_arch.c 0x00000000   Number         0  sys_arch.o ABSOLUTE
    ../rt-thread-1.2.1/components/net/lwip-1.4.1/src/core/def.c 0x00000000   Number         0  def.o ABSOLUTE
    ../rt-thread-1.2.1/components/net/lwip-1.4.1/src/core/dhcp.c 0x00000000   Number         0  dhcp.o ABSOLUTE
    ../rt-thread-1.2.1/components/net/lwip-1.4.1/src/core/dns.c 0x00000000   Number         0  dns.o ABSOLUTE
    ../rt-thread-1.2.1/components/net/lwip-1.4.1/src/core/init.c 0x00000000   Number         0  init.o ABSOLUTE
    ../rt-thread-1.2.1/components/net/lwip-1.4.1/src/core/ipv4/autoip.c 0x00000000   Number         0  autoip.o ABSOLUTE
    ../rt-thread-1.2.1/components/net/lwip-1.4.1/src/core/ipv4/icmp.c 0x00000000   Number         0  icmp.o ABSOLUTE
    ../rt-thread-1.2.1/components/net/lwip-1.4.1/src/core/ipv4/igmp.c 0x00000000   Number         0  igmp.o ABSOLUTE
    ../rt-thread-1.2.1/components/net/lwip-1.4.1/src/core/ipv4/inet.c 0x00000000   Number         0  inet.o ABSOLUTE
    ../rt-thread-1.2.1/components/net/lwip-1.4.1/src/core/ipv4/inet_chksum.c 0x00000000   Number         0  inet_chksum.o ABSOLUTE
    ../rt-thread-1.2.1/components/net/lwip-1.4.1/src/core/ipv4/ip.c 0x00000000   Number         0  ip.o ABSOLUTE
    ../rt-thread-1.2.1/components/net/lwip-1.4.1/src/core/ipv4/ip_addr.c 0x00000000   Number         0  ip_addr.o ABSOLUTE
    ../rt-thread-1.2.1/components/net/lwip-1.4.1/src/core/ipv4/ip_frag.c 0x00000000   Number         0  ip_frag.o ABSOLUTE
    ../rt-thread-1.2.1/components/net/lwip-1.4.1/src/core/memp.c 0x00000000   Number         0  memp.o ABSOLUTE
    ../rt-thread-1.2.1/components/net/lwip-1.4.1/src/core/netif.c 0x00000000   Number         0  netif.o ABSOLUTE
    ../rt-thread-1.2.1/components/net/lwip-1.4.1/src/core/pbuf.c 0x00000000   Number         0  pbuf.o ABSOLUTE
    ../rt-thread-1.2.1/components/net/lwip-1.4.1/src/core/raw.c 0x00000000   Number         0  raw.o ABSOLUTE
    ../rt-thread-1.2.1/components/net/lwip-1.4.1/src/core/stats.c 0x00000000   Number         0  stats.o ABSOLUTE
    ../rt-thread-1.2.1/components/net/lwip-1.4.1/src/core/sys.c 0x00000000   Number         0  sys.o ABSOLUTE
    ../rt-thread-1.2.1/components/net/lwip-1.4.1/src/core/tcp.c 0x00000000   Number         0  tcp.o ABSOLUTE
    ../rt-thread-1.2.1/components/net/lwip-1.4.1/src/core/tcp_in.c 0x00000000   Number         0  tcp_in.o ABSOLUTE
    ../rt-thread-1.2.1/components/net/lwip-1.4.1/src/core/tcp_out.c 0x00000000   Number         0  tcp_out.o ABSOLUTE
    ../rt-thread-1.2.1/components/net/lwip-1.4.1/src/core/timers.c 0x00000000   Number         0  timers.o ABSOLUTE
    ../rt-thread-1.2.1/components/net/lwip-1.4.1/src/core/udp.c 0x00000000   Number         0  udp.o ABSOLUTE
    ../rt-thread-1.2.1/components/net/lwip-1.4.1/src/netif/etharp.c 0x00000000   Number         0  etharp.o ABSOLUTE
    ../rt-thread-1.2.1/components/net/lwip-1.4.1/src/netif/ethernetif.c 0x00000000   Number         0  ethernetif.o ABSOLUTE
    ../rt-thread-1.2.1/components/net/lwip-1.4.1/src/netif/slipif.c 0x00000000   Number         0  slipif.o ABSOLUTE
    ../rt-thread-1.2.1/libcpu/arm/common/backtrace.c 0x00000000   Number         0  backtrace.o ABSOLUTE
    ../rt-thread-1.2.1/libcpu/arm/common/div0.c 0x00000000   Number         0  div0.o ABSOLUTE
    ../rt-thread-1.2.1/libcpu/arm/common/showmem.c 0x00000000   Number         0  showmem.o ABSOLUTE
    ../rt-thread-1.2.1/libcpu/arm/cortex-m4/context_rvds.S 0x00000000   Number         0  context_rvds.o ABSOLUTE
    ../rt-thread-1.2.1/libcpu/arm/cortex-m4/cpuport.c 0x00000000   Number         0  cpuport.o ABSOLUTE
    ../rt-thread-1.2.1/src/clock.c           0x00000000   Number         0  clock.o ABSOLUTE
    ../rt-thread-1.2.1/src/device.c          0x00000000   Number         0  device.o ABSOLUTE
    ../rt-thread-1.2.1/src/idle.c            0x00000000   Number         0  idle.o ABSOLUTE
    ../rt-thread-1.2.1/src/ipc.c             0x00000000   Number         0  ipc.o ABSOLUTE
    ../rt-thread-1.2.1/src/irq.c             0x00000000   Number         0  irq.o ABSOLUTE
    ../rt-thread-1.2.1/src/kservice.c        0x00000000   Number         0  kservice.o ABSOLUTE
    ../rt-thread-1.2.1/src/mem.c             0x00000000   Number         0  mem.o ABSOLUTE
    ../rt-thread-1.2.1/src/mempool.c         0x00000000   Number         0  mempool.o ABSOLUTE
    ../rt-thread-1.2.1/src/object.c          0x00000000   Number         0  object.o ABSOLUTE
    ../rt-thread-1.2.1/src/scheduler.c       0x00000000   Number         0  scheduler.o ABSOLUTE
    ../rt-thread-1.2.1/src/thread.c          0x00000000   Number         0  thread.o ABSOLUTE
    ../rt-thread-1.2.1/src/timer.c           0x00000000   Number         0  timer.o ABSOLUTE
    ..\STM32F4xx_Libraries\CMSIS\ST\STM32F4xx\Source\Templates\system_stm32f4xx.c 0x00000000   Number         0  system_stm32f4xx.o ABSOLUTE
    ..\STM32F4xx_Libraries\STM32F4xx_StdPeriph_Driver\src\misc.c 0x00000000   Number         0  misc.o ABSOLUTE
    ..\STM32F4xx_Libraries\STM32F4xx_StdPeriph_Driver\src\stm32f4xx_adc.c 0x00000000   Number         0  stm32f4xx_adc.o ABSOLUTE
    ..\STM32F4xx_Libraries\STM32F4xx_StdPeriph_Driver\src\stm32f4xx_can.c 0x00000000   Number         0  stm32f4xx_can.o ABSOLUTE
    ..\STM32F4xx_Libraries\STM32F4xx_StdPeriph_Driver\src\stm32f4xx_crc.c 0x00000000   Number         0  stm32f4xx_crc.o ABSOLUTE
    ..\STM32F4xx_Libraries\STM32F4xx_StdPeriph_Driver\src\stm32f4xx_cryp.c 0x00000000   Number         0  stm32f4xx_cryp.o ABSOLUTE
    ..\STM32F4xx_Libraries\STM32F4xx_StdPeriph_Driver\src\stm32f4xx_cryp_aes.c 0x00000000   Number         0  stm32f4xx_cryp_aes.o ABSOLUTE
    ..\STM32F4xx_Libraries\STM32F4xx_StdPeriph_Driver\src\stm32f4xx_cryp_des.c 0x00000000   Number         0  stm32f4xx_cryp_des.o ABSOLUTE
    ..\STM32F4xx_Libraries\STM32F4xx_StdPeriph_Driver\src\stm32f4xx_cryp_tdes.c 0x00000000   Number         0  stm32f4xx_cryp_tdes.o ABSOLUTE
    ..\STM32F4xx_Libraries\STM32F4xx_StdPeriph_Driver\src\stm32f4xx_dac.c 0x00000000   Number         0  stm32f4xx_dac.o ABSOLUTE
    ..\STM32F4xx_Libraries\STM32F4xx_StdPeriph_Driver\src\stm32f4xx_dbgmcu.c 0x00000000   Number         0  stm32f4xx_dbgmcu.o ABSOLUTE
    ..\STM32F4xx_Libraries\STM32F4xx_StdPeriph_Driver\src\stm32f4xx_dcmi.c 0x00000000   Number         0  stm32f4xx_dcmi.o ABSOLUTE
    ..\STM32F4xx_Libraries\STM32F4xx_StdPeriph_Driver\src\stm32f4xx_dma.c 0x00000000   Number         0  stm32f4xx_dma.o ABSOLUTE
    ..\STM32F4xx_Libraries\STM32F4xx_StdPeriph_Driver\src\stm32f4xx_exti.c 0x00000000   Number         0  stm32f4xx_exti.o ABSOLUTE
    ..\STM32F4xx_Libraries\STM32F4xx_StdPeriph_Driver\src\stm32f4xx_flash.c 0x00000000   Number         0  stm32f4xx_flash.o ABSOLUTE
    ..\STM32F4xx_Libraries\STM32F4xx_StdPeriph_Driver\src\stm32f4xx_fsmc.c 0x00000000   Number         0  stm32f4xx_fsmc.o ABSOLUTE
    ..\STM32F4xx_Libraries\STM32F4xx_StdPeriph_Driver\src\stm32f4xx_gpio.c 0x00000000   Number         0  stm32f4xx_gpio.o ABSOLUTE
    ..\STM32F4xx_Libraries\STM32F4xx_StdPeriph_Driver\src\stm32f4xx_hash.c 0x00000000   Number         0  stm32f4xx_hash.o ABSOLUTE
    ..\STM32F4xx_Libraries\STM32F4xx_StdPeriph_Driver\src\stm32f4xx_hash_md5.c 0x00000000   Number         0  stm32f4xx_hash_md5.o ABSOLUTE
    ..\STM32F4xx_Libraries\STM32F4xx_StdPeriph_Driver\src\stm32f4xx_hash_sha1.c 0x00000000   Number         0  stm32f4xx_hash_sha1.o ABSOLUTE
    ..\STM32F4xx_Libraries\STM32F4xx_StdPeriph_Driver\src\stm32f4xx_i2c.c 0x00000000   Number         0  stm32f4xx_i2c.o ABSOLUTE
    ..\STM32F4xx_Libraries\STM32F4xx_StdPeriph_Driver\src\stm32f4xx_iwdg.c 0x00000000   Number         0  stm32f4xx_iwdg.o ABSOLUTE
    ..\STM32F4xx_Libraries\STM32F4xx_StdPeriph_Driver\src\stm32f4xx_pwr.c 0x00000000   Number         0  stm32f4xx_pwr.o ABSOLUTE
    ..\STM32F4xx_Libraries\STM32F4xx_StdPeriph_Driver\src\stm32f4xx_rcc.c 0x00000000   Number         0  stm32f4xx_rcc.o ABSOLUTE
    ..\STM32F4xx_Libraries\STM32F4xx_StdPeriph_Driver\src\stm32f4xx_rng.c 0x00000000   Number         0  stm32f4xx_rng.o ABSOLUTE
    ..\STM32F4xx_Libraries\STM32F4xx_StdPeriph_Driver\src\stm32f4xx_rtc.c 0x00000000   Number         0  stm32f4xx_rtc.o ABSOLUTE
    ..\STM32F4xx_Libraries\STM32F4xx_StdPeriph_Driver\src\stm32f4xx_sdio.c 0x00000000   Number         0  stm32f4xx_sdio.o ABSOLUTE
    ..\STM32F4xx_Libraries\STM32F4xx_StdPeriph_Driver\src\stm32f4xx_spi.c 0x00000000   Number         0  stm32f4xx_spi.o ABSOLUTE
    ..\STM32F4xx_Libraries\STM32F4xx_StdPeriph_Driver\src\stm32f4xx_syscfg.c 0x00000000   Number         0  stm32f4xx_syscfg.o ABSOLUTE
    ..\STM32F4xx_Libraries\STM32F4xx_StdPeriph_Driver\src\stm32f4xx_tim.c 0x00000000   Number         0  stm32f4xx_tim.o ABSOLUTE
    ..\STM32F4xx_Libraries\STM32F4xx_StdPeriph_Driver\src\stm32f4xx_usart.c 0x00000000   Number         0  stm32f4xx_usart.o ABSOLUTE
    ..\STM32F4xx_Libraries\STM32F4xx_StdPeriph_Driver\src\stm32f4xx_wwdg.c 0x00000000   Number         0  stm32f4xx_wwdg.o ABSOLUTE
    ..\drivers\board.c                       0x00000000   Number         0  board.o ABSOLUTE
    ..\drivers\ext_sram.c                    0x00000000   Number         0  ext_sram.o ABSOLUTE
    ..\drivers\platform.c                    0x00000000   Number         0  platform.o ABSOLUTE
    ..\drivers\stm32f4xx_eth.c               0x00000000   Number         0  stm32f4xx_eth.o ABSOLUTE
    ..\drivers\stm32f4xx_exit.c              0x00000000   Number         0  stm32f4xx_exit.o ABSOLUTE
    ..\drivers\stm32f4xx_it.c                0x00000000   Number         0  stm32f4xx_it.o ABSOLUTE
    ..\drivers\stm32f4xx_sd.c                0x00000000   Number         0  stm32f4xx_sd.o ABSOLUTE
    ..\drivers\usart.c                       0x00000000   Number         0  usart.o ABSOLUTE
    applications/application.c               0x00000000   Number         0  application.o ABSOLUTE
    applications/exit.c                      0x00000000   Number         0  exit.o ABSOLUTE
    applications/startup.c                   0x00000000   Number         0  startup.o ABSOLUTE
    applications/tcpclient.c                 0x00000000   Number         0  tcpclient.o ABSOLUTE
    applications\application.c               0x00000000   Number         0  application.o ABSOLUTE
    applications\exit.c                      0x00000000   Number         0  exit.o ABSOLUTE
    applications\startup.c                   0x00000000   Number         0  startup.o ABSOLUTE
    applications\tcpserver.c                 0x00000000   Number         0  tcpserver.o ABSOLUTE
    dc.s                                     0x00000000   Number         0  dc.o ABSOLUTE
    RESET                                    0x08000000   Section      392  startup_stm32f4xx.o(RESET)
    !!!main                                  0x08000188   Section        8  __main.o(!!!main)
    !!!scatter                               0x08000190   Section       52  __scatter.o(!!!scatter)
    !!dczerorl2                              0x080001c4   Section       90  __dczerorl2.o(!!dczerorl2)
    !!handler_zi                             0x08000220   Section       28  __scatter_zi.o(!!handler_zi)
    .ARM.Collect$$libinit$$00000000          0x0800023c   Section        2  libinit.o(.ARM.Collect$$libinit$$00000000)
    .ARM.Collect$$libinit$$00000001          0x0800023e   Section        4  libinit2.o(.ARM.Collect$$libinit$$00000001)
    .ARM.Collect$$libinit$$00000008          0x08000242   Section        0  libinit2.o(.ARM.Collect$$libinit$$00000008)
    .ARM.Collect$$libinit$$0000000A          0x08000242   Section        0  libinit2.o(.ARM.Collect$$libinit$$0000000A)
    .ARM.Collect$$libinit$$0000000C          0x08000242   Section        0  libinit2.o(.ARM.Collect$$libinit$$0000000C)
    .ARM.Collect$$libinit$$0000000D          0x08000242   Section        6  libinit2.o(.ARM.Collect$$libinit$$0000000D)
    .ARM.Collect$$libinit$$0000000F          0x08000248   Section        0  libinit2.o(.ARM.Collect$$libinit$$0000000F)
    .ARM.Collect$$libinit$$00000010          0x08000248   Section       12  libinit2.o(.ARM.Collect$$libinit$$00000010)
    .ARM.Collect$$libinit$$00000011          0x08000254   Section        0  libinit2.o(.ARM.Collect$$libinit$$00000011)
    .ARM.Collect$$libinit$$00000013          0x08000254   Section        0  libinit2.o(.ARM.Collect$$libinit$$00000013)
    .ARM.Collect$$libinit$$00000015          0x08000254   Section        0  libinit2.o(.ARM.Collect$$libinit$$00000015)
    .ARM.Collect$$libinit$$00000017          0x08000254   Section        0  libinit2.o(.ARM.Collect$$libinit$$00000017)
    .ARM.Collect$$libinit$$00000019          0x08000254   Section        0  libinit2.o(.ARM.Collect$$libinit$$00000019)
    .ARM.Collect$$libinit$$0000001B          0x08000254   Section        0  libinit2.o(.ARM.Collect$$libinit$$0000001B)
    .ARM.Collect$$libinit$$0000001D          0x08000254   Section        0  libinit2.o(.ARM.Collect$$libinit$$0000001D)
    .ARM.Collect$$libinit$$0000001F          0x08000254   Section        0  libinit2.o(.ARM.Collect$$libinit$$0000001F)
    .ARM.Collect$$libinit$$00000021          0x08000254   Section        0  libinit2.o(.ARM.Collect$$libinit$$00000021)
    .ARM.Collect$$libinit$$00000023          0x08000254   Section        0  libinit2.o(.ARM.Collect$$libinit$$00000023)
    .ARM.Collect$$libinit$$0000002A          0x08000254   Section        0  libinit2.o(.ARM.Collect$$libinit$$0000002A)
    .ARM.Collect$$libinit$$0000002C          0x08000254   Section        0  libinit2.o(.ARM.Collect$$libinit$$0000002C)
    .ARM.Collect$$libinit$$0000002E          0x08000254   Section        0  libinit2.o(.ARM.Collect$$libinit$$0000002E)
    .ARM.Collect$$libinit$$00000030          0x08000254   Section        0  libinit2.o(.ARM.Collect$$libinit$$00000030)
    .ARM.Collect$$libinit$$00000031          0x08000254   Section        2  libinit2.o(.ARM.Collect$$libinit$$00000031)
    .ARM.Collect$$libshutdown$$00000000      0x08000256   Section        2  libshutdown.o(.ARM.Collect$$libshutdown$$00000000)
    .ARM.Collect$$libshutdown$$00000003      0x08000258   Section        0  libshutdown2.o(.ARM.Collect$$libshutdown$$00000003)
    .ARM.Collect$$libshutdown$$00000006      0x08000258   Section        0  libshutdown2.o(.ARM.Collect$$libshutdown$$00000006)
    .ARM.Collect$$libshutdown$$00000009      0x08000258   Section        0  libshutdown2.o(.ARM.Collect$$libshutdown$$00000009)
    .ARM.Collect$$libshutdown$$0000000B      0x08000258   Section        0  libshutdown2.o(.ARM.Collect$$libshutdown$$0000000B)
    .ARM.Collect$$libshutdown$$0000000E      0x08000258   Section        0  libshutdown2.o(.ARM.Collect$$libshutdown$$0000000E)
    .ARM.Collect$$libshutdown$$0000000F      0x08000258   Section        2  libshutdown2.o(.ARM.Collect$$libshutdown$$0000000F)
    .ARM.Collect$$rtentry$$00000000          0x0800025a   Section        0  rtentry.o(.ARM.Collect$$rtentry$$00000000)
    .ARM.Collect$$rtentry$$00000002          0x0800025a   Section        0  rtentry2.o(.ARM.Collect$$rtentry$$00000002)
    .ARM.Collect$$rtentry$$00000004          0x0800025a   Section        6  rtentry4.o(.ARM.Collect$$rtentry$$00000004)
    .ARM.Collect$$rtentry$$00000009          0x08000260   Section        0  rtentry2.o(.ARM.Collect$$rtentry$$00000009)
    .ARM.Collect$$rtentry$$0000000A          0x08000260   Section        4  rtentry2.o(.ARM.Collect$$rtentry$$0000000A)
    .ARM.Collect$$rtentry$$0000000C          0x08000264   Section        0  rtentry2.o(.ARM.Collect$$rtentry$$0000000C)
    .ARM.Collect$$rtentry$$0000000D          0x08000264   Section        8  rtentry2.o(.ARM.Collect$$rtentry$$0000000D)
    .ARM.Collect$$rtexit$$00000000           0x0800026c   Section        2  rtexit.o(.ARM.Collect$$rtexit$$00000000)
    .ARM.Collect$$rtexit$$00000002           0x0800026e   Section        0  rtexit2.o(.ARM.Collect$$rtexit$$00000002)
    .ARM.Collect$$rtexit$$00000003           0x0800026e   Section        4  rtexit2.o(.ARM.Collect$$rtexit$$00000003)
    .ARM.Collect$$rtexit$$00000004           0x08000272   Section        6  rtexit2.o(.ARM.Collect$$rtexit$$00000004)
    .text                                    0x08000278   Section        0  system_stm32f4xx.o(.text)
    SetSysClock                              0x08000279   Thumb Code   218  system_stm32f4xx.o(.text)
    .text                                    0x08000484   Section        0  misc.o(.text)
    .text                                    0x08000680   Section        0  stm32f4xx_dma.o(.text)
    .text                                    0x080019d8   Section        0  stm32f4xx_exti.o(.text)
    .text                                    0x08001cac   Section        0  stm32f4xx_gpio.o(.text)
    .text                                    0x08002574   Section        0  stm32f4xx_rcc.o(.text)
    .text                                    0x08003270   Section        0  stm32f4xx_sdio.o(.text)
    .text                                    0x08003894   Section        0  stm32f4xx_syscfg.o(.text)
    .text                                    0x080039e0   Section        0  stm32f4xx_usart.o(.text)
    .text                                    0x08004800   Section       64  startup_stm32f4xx.o(.text)
    $v0                                      0x08004800   Number         0  startup_stm32f4xx.o(.text)
    .text                                    0x08004840   Section        0  board.o(.text)
    mco_config                               0x08004ae7   Thumb Code    74  board.o(.text)
    reset                                    0x08004b99   Thumb Code    38  board.o(.text)
    .text                                    0x08004bec   Section        0  platform.o(.text)
    .text                                    0x08004c0c   Section        0  usart.o(.text)
    stm32_configure                          0x08004c0d   Thumb Code   198  usart.o(.text)
    stm32_control                            0x08004cd3   Thumb Code   108  usart.o(.text)
    stm32_putc                               0x08004d3f   Thumb Code    58  usart.o(.text)
    stm32_getc                               0x08004d79   Thumb Code    60  usart.o(.text)
    RCC_Configuration                        0x08004df5   Thumb Code    20  usart.o(.text)
    GPIO_Configuration                       0x08004e09   Thumb Code    62  usart.o(.text)
    NVIC_Configuration                       0x08004e47   Thumb Code    34  usart.o(.text)
    .text                                    0x08004f44   Section        0  stm32f4xx_it.o(.text)
    .text                                    0x08004fb4   Section        0  stm32f4xx_sd.o(.text)
    stm32f4xx_sdio_send_command              0x08005207   Thumb Code   246  stm32f4xx_sd.o(.text)
    stm32f4xx_sdio_process_next              0x080052fd   Thumb Code    62  stm32f4xx_sd.o(.text)
    stm32f4xx_sdio_completed_command         0x0800533b   Thumb Code   206  stm32f4xx_sd.o(.text)
    stm32f4xx_sdio_request                   0x08005493   Thumb Code    24  stm32f4xx_sd.o(.text)
    stm32f4xx_sdio_set_iocfg                 0x080054ab   Thumb Code   126  stm32f4xx_sd.o(.text)
    stm32f4xx_sdio_enable_sdio_irq           0x08005529   Thumb Code    30  stm32f4xx_sd.o(.text)
    .text                                    0x08005698   Section        0  stm32f4xx_eth.o(.text)
    rt_stm32_eth_init                        0x08007769   Thumb Code   180  stm32f4xx_eth.o(.text)
    rt_stm32_eth_open                        0x0800781d   Thumb Code     6  stm32f4xx_eth.o(.text)
    rt_stm32_eth_close                       0x08007823   Thumb Code     6  stm32f4xx_eth.o(.text)
    rt_stm32_eth_read                        0x08007829   Thumb Code    26  stm32f4xx_eth.o(.text)
    rt_stm32_eth_write                       0x08007843   Thumb Code    26  stm32f4xx_eth.o(.text)
    rt_stm32_eth_control                     0x0800785d   Thumb Code    44  stm32f4xx_eth.o(.text)
    NVIC_Configuration                       0x08007aa5   Thumb Code    34  stm32f4xx_eth.o(.text)
    GPIO_Configuration                       0x08007ac7   Thumb Code   202  stm32f4xx_eth.o(.text)
    phy_monitor_thread_entry                 0x08007b91   Thumb Code    90  stm32f4xx_eth.o(.text)
    .text                                    0x08007dfc   Section        0  application.o(.text)
    .text                                    0x08007ea8   Section        0  startup.o(.text)
    .text                                    0x08007f78   Section        0  tcpclient.o(.text)
    .text                                    0x080080d0   Section        0  tcpserver.o(.text)
    .text                                    0x080082ec   Section        0  clock.o(.text)
    .text                                    0x08008350   Section        0  device.o(.text)
    .text                                    0x08008788   Section        0  idle.o(.text)
    rt_thread_idle_entry                     0x0800883f   Thumb Code    20  idle.o(.text)
    rt_list_isempty                          0x08008879   Thumb Code    16  idle.o(.text)
    .text                                    0x080088f0   Section        0  ipc.o(.text)
    rt_list_insert_before                    0x080088f1   Thumb Code    14  ipc.o(.text)
    rt_ipc_list_suspend                      0x080088ff   Thumb Code   108  ipc.o(.text)
    rt_ipc_list_resume_all                   0x0800896b   Thumb Code    50  ipc.o(.text)
    rt_list_init                             0x0800a393   Thumb Code     6  ipc.o(.text)
    rt_list_isempty                          0x0800a399   Thumb Code    16  ipc.o(.text)
    rt_ipc_object_init                       0x0800a3a9   Thumb Code    16  ipc.o(.text)
    rt_ipc_list_resume                       0x0800a3b9   Thumb Code    24  ipc.o(.text)
    .text                                    0x0800a3e8   Section        0  irq.o(.text)
    .text                                    0x0800a430   Section        0  kservice.o(.text)
    print_number                             0x0800a6d9   Thumb Code   370  kservice.o(.text)
    skip_atoi                                0x0800a84b   Thumb Code    38  kservice.o(.text)
    .text                                    0x0800ade0   Section        0  mem.o(.text)
    plug_holes                               0x0800aded   Thumb Code   214  mem.o(.text)
    .text                                    0x0800b790   Section        0  object.o(.text)
    rt_list_insert_after                     0x0800b791   Thumb Code    14  object.o(.text)
    rt_list_remove                           0x0800b79f   Thumb Code    18  object.o(.text)
    .text                                    0x0800bad8   Section        0  scheduler.o(.text)
    _rt_scheduler_stack_check                0x0800badf   Thumb Code   100  scheduler.o(.text)
    rt_list_init                             0x0800bd53   Thumb Code     6  scheduler.o(.text)
    .text                                    0x0800be0c   Section        0  thread.o(.text)
    rt_list_insert_after                     0x0800be0d   Thumb Code    14  thread.o(.text)
    rt_list_remove                           0x0800be1b   Thumb Code    18  thread.o(.text)
    rt_thread_exit                           0x0800be2d   Thumb Code    76  thread.o(.text)
    _rt_thread_init                          0x0800bedf   Thumb Code   164  thread.o(.text)
    .text                                    0x0800c4c4   Section        0  timer.o(.text)
    rt_list_insert_after                     0x0800c4c5   Thumb Code    14  timer.o(.text)
    _rt_timer_init                           0x0800c4d9   Thumb Code    66  timer.o(.text)
    rt_timer_list_next_timeout               0x0800c51b   Thumb Code    28  timer.o(.text)
    _rt_timer_remove                         0x0800c537   Thumb Code    46  timer.o(.text)
    rt_timer_count_height                    0x0800c565   Thumb Code    36  timer.o(.text)
    rt_list_init                             0x0800ca05   Thumb Code     6  timer.o(.text)
    rt_list_isempty                          0x0800ca0b   Thumb Code    16  timer.o(.text)
    .text                                    0x0800ca24   Section        0  cpuport.o(.text)
    .text                                    0x0800cbe4   Section      272  context_rvds.o(.text)
    $v0                                      0x0800cbe4   Number         0  context_rvds.o(.text)
    .text                                    0x0800ccf4   Section        0  block_dev.o(.text)
    rt_list_insert_after                     0x0800ccf5   Thumb Code    14  block_dev.o(.text)
    mmcsd_num_wr_blocks                      0x0800cd03   Thumb Code   230  block_dev.o(.text)
    rt_mmcsd_req_blk                         0x0800cde9   Thumb Code   342  block_dev.o(.text)
    rt_mmcsd_init                            0x0800cf3f   Thumb Code     6  block_dev.o(.text)
    rt_mmcsd_open                            0x0800cf45   Thumb Code     6  block_dev.o(.text)
    rt_mmcsd_close                           0x0800cf4b   Thumb Code     6  block_dev.o(.text)
    rt_mmcsd_control                         0x0800cf51   Thumb Code    40  block_dev.o(.text)
    rt_mmcsd_read                            0x0800cf79   Thumb Code    96  block_dev.o(.text)
    rt_mmcsd_write                           0x0800cfd9   Thumb Code    96  block_dev.o(.text)
    mmcsd_set_blksize                        0x0800d039   Thumb Code    80  block_dev.o(.text)
    .text                                    0x0800d3a8   Section        0  mmcsd_core.o(.text)
    mmcsd_delay_ms                           0x0800d3a9   Thumb Code    30  mmcsd_core.o(.text)
    _mmcsd_select_card                       0x0800d749   Thumb Code    66  mmcsd_core.o(.text)
    mmcsd_power_up                           0x0800d909   Thumb Code    84  mmcsd_core.o(.text)
    mmcsd_power_off                          0x0800d95d   Thumb Code    44  mmcsd_core.o(.text)
    fls                                      0x0800db5b   Thumb Code    64  mmcsd_core.o(.text)
    mmcsd_set_iocfg                          0x0800db9b   Thumb Code    20  mmcsd_core.o(.text)
    .text                                    0x0800dc34   Section        0  sd.o(.text)
    GET_BITS                                 0x0800dc35   Thumb Code    94  sd.o(.text)
    mmcsd_parse_csd                          0x0800dc93   Thumb Code   580  sd.o(.text)
    mmcsd_parse_scr                          0x0800ded7   Thumb Code    46  sd.o(.text)
    mmcsd_switch                             0x0800df05   Thumb Code   302  sd.o(.text)
    mmcsd_app_cmd                            0x0800e033   Thumb Code    90  sd.o(.text)
    mmcsd_sd_init_card                       0x0800e417   Thumb Code   378  sd.o(.text)
    .text                                    0x0800e65c   Section        0  sdio.o(.text)
    rt_list_insert_after                     0x0800e65d   Thumb Code    14  sdio.o(.text)
    sdio_max_block_size                      0x0800ea0d   Thumb Code   228  sdio.o(.text)
    sdio_io_rw_extended_block                0x0800eaf1   Thumb Code   258  sdio.o(.text)
    sdio_read_cccr                           0x0800ed59   Thumb Code   250  sdio.o(.text)
    cistpl_funce_func0                       0x0800ee53   Thumb Code    60  sdio.o(.text)
    cistpl_funce_func                        0x0800ee8f   Thumb Code    76  sdio.o(.text)
    sdio_read_cis                            0x0800eedb   Thumb Code   492  sdio.o(.text)
    sdio_read_fbr                            0x0800f0f5   Thumb Code    72  sdio.o(.text)
    sdio_initialize_function                 0x0800f13d   Thumb Code   390  sdio.o(.text)
    sdio_set_highspeed                       0x0800f2c3   Thumb Code    94  sdio.o(.text)
    sdio_set_bus_wide                        0x0800f321   Thumb Code   100  sdio.o(.text)
    sdio_match_card                          0x0800f385   Thumb Code    54  sdio.o(.text)
    sdio_register_card                       0x0800f3bb   Thumb Code    92  sdio.o(.text)
    sdio_init_card                           0x0800f417   Thumb Code   458  sdio.o(.text)
    sdio_irq_thread                          0x0800f763   Thumb Code   210  sdio.o(.text)
    sdio_irq_thread_create                   0x0800f835   Thumb Code   108  sdio.o(.text)
    sdio_irq_thread_delete                   0x0800f8a1   Thumb Code   100  sdio.o(.text)
    sdio_match_driver                        0x0800fcd7   Thumb Code    44  sdio.o(.text)
    rt_list_init                             0x0800fdc1   Thumb Code     6  sdio.o(.text)
    rt_list_isempty                          0x0800fdc7   Thumb Code    16  sdio.o(.text)
    .text                                    0x0800fe24   Section        0  serial.o(.text)
    rt_serial_init                           0x0800fe25   Thumb Code   146  serial.o(.text)
    rt_serial_open                           0x0800feb7   Thumb Code    80  serial.o(.text)
    rt_serial_close                          0x0800ff07   Thumb Code    78  serial.o(.text)
    rt_serial_read                           0x0800ff55   Thumb Code   196  serial.o(.text)
    rt_serial_write                          0x08010019   Thumb Code   346  serial.o(.text)
    rt_serial_control                        0x08010173   Thumb Code   108  serial.o(.text)
    .text                                    0x0801040c   Section        0  dataqueue.o(.text)
    rt_list_insert_before                    0x0801040d   Thumb Code    14  dataqueue.o(.text)
    rt_list_init                             0x080108bb   Thumb Code     6  dataqueue.o(.text)
    rt_list_isempty                          0x080108c1   Thumb Code    16  dataqueue.o(.text)
    .text                                    0x080108d0   Section        0  shell.o(.text)
    finsh_rx_ind                             0x080108d1   Thumb Code    52  shell.o(.text)
    shell_auto_complete                      0x08010a1b   Thumb Code    28  shell.o(.text)
    shell_handle_history                     0x08010acd   Thumb Code    26  shell.o(.text)
    shell_push_history                       0x08010ae7   Thumb Code   162  shell.o(.text)
    .text                                    0x080112c4   Section        0  cmd.o(.text)
    rt_list_len                              0x080112c5   Thumb Code    20  cmd.o(.text)
    _list_thread                             0x080112ef   Thumb Code   174  cmd.o(.text)
    show_wait_queue                          0x080113a7   Thumb Code    40  cmd.o(.text)
    _list_sem                                0x080113cf   Thumb Code   108  cmd.o(.text)
    _list_event                              0x08011447   Thumb Code    96  cmd.o(.text)
    _list_mutex                              0x080114b3   Thumb Code    66  cmd.o(.text)
    _list_mailbox                            0x08011501   Thumb Code   120  cmd.o(.text)
    _list_msgqueue                           0x08011585   Thumb Code   108  cmd.o(.text)
    _list_mempool                            0x080115fd   Thumb Code   102  cmd.o(.text)
    _list_timer                              0x0801166f   Thumb Code  1074  cmd.o(.text)
    _list_device                             0x08011aab   Thumb Code    78  cmd.o(.text)
    str_is_prefix                            0x08011b83   Thumb Code    34  cmd.o(.text)
    str_common                               0x08011ba5   Thumb Code    32  cmd.o(.text)
    rt_list_isempty                          0x08011d77   Thumb Code    16  cmd.o(.text)
    .text                                    0x08011e54   Section        0  finsh_compiler.o(.text)
    finsh_compile                            0x08011e55   Thumb Code  5712  finsh_compiler.o(.text)
    finsh_type_check                         0x080134a5   Thumb Code   350  finsh_compiler.o(.text)
    .text                                    0x0801366c   Section        0  finsh_error.o(.text)
    .text                                    0x08013698   Section        0  finsh_heap.o(.text)
    finsh_block_insert                       0x080136bd   Thumb Code    62  finsh_heap.o(.text)
    finsh_block_remove                       0x080136fb   Thumb Code    46  finsh_heap.o(.text)
    finsh_block_split                        0x08013729   Thumb Code    24  finsh_heap.o(.text)
    finsh_block_merge                        0x08013741   Thumb Code   124  finsh_heap.o(.text)
    finsh_heap_gc                            0x080137df   Thumb Code    78  finsh_heap.o(.text)
    .text                                    0x080138a8   Section        0  finsh_init.o(.text)
    .text                                    0x08013900   Section        0  finsh_node.o(.text)
    .text                                    0x08013a84   Section        0  finsh_ops.o(.text)
    .text                                    0x08014560   Section        0  finsh_parser.o(.text)
    make_sys_node                            0x08014561   Thumb Code    40  finsh_parser.o(.text)
    proc_param_list                          0x08014589   Thumb Code    76  finsh_parser.o(.text)
    proc_expr                                0x080145d5   Thumb Code    12  finsh_parser.o(.text)
    proc_identifier                          0x080145e1   Thumb Code    44  finsh_parser.o(.text)
    proc_primary_expr                        0x0801460d   Thumb Code   158  finsh_parser.o(.text)
    proc_postfix_expr                        0x080146ab   Thumb Code   162  finsh_parser.o(.text)
    proc_unary_expr                          0x0801474d   Thumb Code   190  finsh_parser.o(.text)
    proc_type                                0x0801480b   Thumb Code   250  finsh_parser.o(.text)
    proc_cast_expr                           0x08014905   Thumb Code    78  finsh_parser.o(.text)
    proc_multiplicative_expr                 0x08014953   Thumb Code   138  finsh_parser.o(.text)
    proc_additive_expr                       0x080149dd   Thumb Code   114  finsh_parser.o(.text)
    proc_shift_expr                          0x08014a4f   Thumb Code   116  finsh_parser.o(.text)
    proc_and_expr                            0x08014ac3   Thumb Code    76  finsh_parser.o(.text)
    proc_exclusive_or_expr                   0x08014b0f   Thumb Code    76  finsh_parser.o(.text)
    proc_inclusive_or_expr                   0x08014b5b   Thumb Code    76  finsh_parser.o(.text)
    proc_assign_expr                         0x08014ba7   Thumb Code    56  finsh_parser.o(.text)
    proc_variable_decl                       0x08014bdf   Thumb Code   474  finsh_parser.o(.text)
    proc_expr_statement                      0x08014db9   Thumb Code    56  finsh_parser.o(.text)
    .text                                    0x08014edc   Section        0  finsh_var.o(.text)
    .text                                    0x08015074   Section        0  finsh_vm.o(.text)
    .text                                    0x08015158   Section        0  finsh_token.o(.text)
    token_prev_char                          0x0801516d   Thumb Code    22  finsh_token.o(.text)
    token_next_char                          0x08015183   Thumb Code    62  finsh_token.o(.text)
    token_spec_number                        0x080151c1   Thumb Code   152  finsh_token.o(.text)
    token_proc_number                        0x08015259   Thumb Code   260  finsh_token.o(.text)
    token_proc_escape                        0x0801535d   Thumb Code   174  finsh_token.o(.text)
    token_proc_string                        0x0801540b   Thumb Code    80  finsh_token.o(.text)
    token_proc_char                          0x0801545b   Thumb Code   162  finsh_token.o(.text)
    token_match_name                         0x080154fd   Thumb Code    48  finsh_token.o(.text)
    token_trim_space                         0x080155a5   Thumb Code    34  finsh_token.o(.text)
    token_run                                0x080155c7   Thumb Code   414  finsh_token.o(.text)
    .text                                    0x08015794   Section        0  dfs.o(.text)
    .text                                    0x08015b90   Section        0  dfs_fs.o(.text)
    .text                                    0x0801617c   Section        0  dfs_file.o(.text)
    copyfile                                 0x08016705   Thumb Code   154  dfs_file.o(.text)
    copydir                                  0x0801679f   Thumb Code   250  dfs_file.o(.text)
    _get_path_lastname                       0x08016899   Thumb Code    26  dfs_file.o(.text)
    .text                                    0x08016b08   Section        0  dfs_posix.o(.text)
    .text                                    0x08017058   Section        0  dfs_elm.o(.text)
    elm_result_to_dfs                        0x08017059   Thumb Code    88  dfs_elm.o(.text)
    get_disk                                 0x080170b1   Thumb Code    32  dfs_elm.o(.text)
    .text                                    0x08017bac   Section        0  ff.o(.text)
    mem_cpy                                  0x08017bad   Thumb Code    80  ff.o(.text)
    mem_set                                  0x08017bfd   Thumb Code    20  ff.o(.text)
    mem_cmp                                  0x08017c11   Thumb Code    38  ff.o(.text)
    chk_chr                                  0x08017c37   Thumb Code    20  ff.o(.text)
    lock_fs                                  0x08017c4b   Thumb Code    12  ff.o(.text)
    unlock_fs                                0x08017c57   Thumb Code    30  ff.o(.text)
    move_window                              0x08017c75   Thumb Code   114  ff.o(.text)
    sync                                     0x08017ce7   Thumb Code   110  ff.o(.text)
    remove_chain                             0x08017fdb   Thumb Code   104  ff.o(.text)
    create_chain                             0x08018043   Thumb Code   210  ff.o(.text)
    clmt_clust                               0x08018115   Thumb Code    56  ff.o(.text)
    dir_sdi                                  0x0801814d   Thumb Code   220  ff.o(.text)
    dir_next                                 0x08018229   Thumb Code   320  ff.o(.text)
    dir_find                                 0x08018369   Thumb Code    92  ff.o(.text)
    dir_read                                 0x080183c5   Thumb Code    86  ff.o(.text)
    dir_register                             0x0801841b   Thumb Code   110  ff.o(.text)
    dir_remove                               0x08018489   Thumb Code    44  ff.o(.text)
    create_name                              0x080184b5   Thumb Code   328  ff.o(.text)
    get_fileinfo                             0x080185fd   Thumb Code   112  ff.o(.text)
    follow_path                              0x0801866d   Thumb Code   146  ff.o(.text)
    check_fs                                 0x080186ff   Thumb Code    82  ff.o(.text)
    chk_mounted                              0x08018751   Thumb Code   702  ff.o(.text)
    validate                                 0x08018a0f   Thumb Code    54  ff.o(.text)
    .text                                    0x0801a0ac   Section        0  api_lib.o(.text)
    netconn_recv_data                        0x0801a6bf   Thumb Code   364  api_lib.o(.text)
    netconn_close_shutdown                   0x0801abdb   Thumb Code    94  api_lib.o(.text)
    .text                                    0x0801ad68   Section        0  api_msg.o(.text)
    recv_raw                                 0x0801ad69   Thumb Code   152  api_msg.o(.text)
    recv_udp                                 0x0801ae01   Thumb Code   206  api_msg.o(.text)
    recv_tcp                                 0x0801aecf   Thumb Code   208  api_msg.o(.text)
    err_tcp                                  0x0801af9f   Thumb Code   262  api_msg.o(.text)
    do_writemore                             0x0801b0a5   Thumb Code   892  api_msg.o(.text)
    sent_tcp                                 0x0801b421   Thumb Code   128  api_msg.o(.text)
    do_close_internal                        0x0801b4a1   Thumb Code   452  api_msg.o(.text)
    poll_tcp                                 0x0801b665   Thumb Code   372  api_msg.o(.text)
    setup_tcp                                0x0801b7d9   Thumb Code    50  api_msg.o(.text)
    accept_function                          0x0801b93f   Thumb Code   168  api_msg.o(.text)
    pcb_new                                  0x0801b9e7   Thumb Code   176  api_msg.o(.text)
    netconn_drain                            0x0801bab7   Thumb Code   200  api_msg.o(.text)
    do_connected                             0x0801be65   Thumb Code   210  api_msg.o(.text)
    do_dns_found                             0x0801c505   Thumb Code    78  api_msg.o(.text)
    .text                                    0x0801c5d8   Section        0  netbuf.o(.text)
    .text                                    0x0801c988   Section        0  netdb.o(.text)
    .text                                    0x0801cc44   Section        0  netifapi.o(.text)
    .text                                    0x0801cd3c   Section        0  sockets.o(.text)
    get_socket                               0x0801cd3f   Thumb Code    54  sockets.o(.text)
    tryget_socket                            0x0801cd75   Thumb Code    42  sockets.o(.text)
    alloc_socket                             0x0801cd9f   Thumb Code   166  sockets.o(.text)
    free_socket                              0x0801ce45   Thumb Code    56  sockets.o(.text)
    event_callback                           0x0801ce7d   Thumb Code   376  sockets.o(.text)
    lwip_selscan                             0x0801db73   Thumb Code   368  sockets.o(.text)
    lwip_getaddrname                         0x0801e18b   Thumb Code   126  sockets.o(.text)
    lwip_getsockopt_internal                 0x0801e235   Thumb Code   464  sockets.o(.text)
    lwip_setsockopt_internal                 0x0801e5a7   Thumb Code   412  sockets.o(.text)
    .text                                    0x0801e988   Section        0  tcpip.o(.text)
    tcpip_thread                             0x0801e989   Thumb Code   214  tcpip.o(.text)
    pbuf_free_int                            0x0801ec95   Thumb Code    14  tcpip.o(.text)
    .text                                    0x0801ed6c   Section        0  sys_arch.o(.text)
    netif_device_init                        0x0801ed6d   Thumb Code    42  sys_arch.o(.text)
    tcpip_init_done_callback                 0x0801edcd   Thumb Code   156  sys_arch.o(.text)
    .text                                    0x0801f5c8   Section        0  def.o(.text)
    .text                                    0x0801f608   Section        0  dns.o(.text)
    dns_parse_name                           0x0801f625   Thumb Code    42  dns.o(.text)
    dns_compare_name                         0x0801f64f   Thumb Code    60  dns.o(.text)
    dns_recv                                 0x0801f68b   Thumb Code   348  dns.o(.text)
    dns_send                                 0x0801f849   Thumb Code   316  dns.o(.text)
    dns_check_entry                          0x0801f985   Thumb Code   502  dns.o(.text)
    dns_check_entries                        0x0801fb7b   Thumb Code    22  dns.o(.text)
    dns_lookup                               0x0801fb9f   Thumb Code    86  dns.o(.text)
    dns_enqueue                              0x0801fbf5   Thumb Code   218  dns.o(.text)
    .text                                    0x0801fd54   Section        0  init.o(.text)
    .text                                    0x0801fd74   Section        0  netif.o(.text)
    .text                                    0x08020058   Section        0  pbuf.o(.text)
    pbuf_free_ooseq                          0x08020059   Thumb Code    52  pbuf.o(.text)
    pbuf_free_ooseq_callback                 0x0802008d   Thumb Code    10  pbuf.o(.text)
    pbuf_pool_is_empty                       0x08020097   Thumb Code    62  pbuf.o(.text)
    .text                                    0x08021034   Section        0  raw.o(.text)
    .text                                    0x08021260   Section        0  tcp.o(.text)
    tcp_close_shutdown                       0x0802194d   Thumb Code   450  tcp.o(.text)
    tcp_new_port                             0x08021fb5   Thumb Code    96  tcp.o(.text)
    tcp_accept_null                          0x080220bb   Thumb Code     8  tcp.o(.text)
    tcp_kill_prio                            0x08022425   Thumb Code    76  tcp.o(.text)
    tcp_kill_timewait                        0x08022471   Thumb Code    50  tcp.o(.text)
    .text                                    0x0802272c   Section        0  tcp_in.o(.text)
    tcp_oos_insert_segment                   0x0802272d   Thumb Code   138  tcp_in.o(.text)
    tcp_receive                              0x080227b7   Thumb Code  3462  tcp_in.o(.text)
    tcp_parseopt                             0x0802353d   Thumb Code   178  tcp_in.o(.text)
    tcp_process                              0x080235ef   Thumb Code  1532  tcp_in.o(.text)
    tcp_listen_input                         0x08023beb   Thumb Code   266  tcp_in.o(.text)
    tcp_timewait_input                       0x08023cf5   Thumb Code   140  tcp_in.o(.text)
    .text                                    0x0802440c   Section        0  tcp_out.o(.text)
    tcp_output_alloc_header                  0x0802440d   Thumb Code   150  tcp_out.o(.text)
    tcp_create_segment                       0x080244a3   Thumb Code   174  tcp_out.o(.text)
    tcp_pbuf_prealloc                        0x08024731   Thumb Code   144  tcp_out.o(.text)
    tcp_write_checks                         0x080247c1   Thumb Code   492  tcp_out.o(.text)
    tcp_output_segment                       0x08025019   Thumb Code   200  tcp_out.o(.text)
    .text                                    0x080255f8   Section        0  timers.o(.text)
    tcpip_tcp_timer                          0x080256ab   Thumb Code    40  timers.o(.text)
    arp_timer                                0x080256f9   Thumb Code    22  timers.o(.text)
    dns_timer                                0x0802570f   Thumb Code    22  timers.o(.text)
    .text                                    0x080258bc   Section        0  udp.o(.text)
    udp_new_port                             0x080258bf   Thumb Code    80  udp.o(.text)
    .text                                    0x08025e0c   Section        0  icmp.o(.text)
    icmp_send_response                       0x08025ff1   Thumb Code   138  icmp.o(.text)
    .text                                    0x080261b0   Section        0  inet_chksum.o(.text)
    lwip_standard_chksum                     0x080261b1   Thumb Code    94  inet_chksum.o(.text)
    .text                                    0x08026400   Section        0  ip.o(.text)
    .text                                    0x08026788   Section        0  ip_addr.o(.text)
    .text                                    0x08026a5c   Section        0  etharp.o(.text)
    free_etharp_q                            0x08026a5d   Thumb Code   104  etharp.o(.text)
    etharp_free_entry                        0x08026ac5   Thumb Code    58  etharp.o(.text)
    etharp_find_entry                        0x08026b89   Thumb Code   494  etharp.o(.text)
    etharp_send_ip                           0x08026d77   Thumb Code    84  etharp.o(.text)
    etharp_update_arp_entry                  0x08026dcb   Thumb Code   540  etharp.o(.text)
    etharp_arp_input                         0x08027087   Thumb Code   312  etharp.o(.text)
    etharp_raw                               0x080271bf   Thumb Code   260  etharp.o(.text)
    etharp_output_to_arp_index               0x080272e7   Thumb Code   312  etharp.o(.text)
    .text                                    0x080278f0   Section        0  ethernetif.o(.text)
    ethernetif_linkoutput                    0x080278f1   Thumb Code    38  ethernetif.o(.text)
    eth_netif_device_init                    0x08027917   Thumb Code    66  ethernetif.o(.text)
    eth_tx_thread_entry                      0x08027a87   Thumb Code   130  ethernetif.o(.text)
    eth_rx_thread_entry                      0x08027b09   Thumb Code   152  ethernetif.o(.text)
    .text                                    0x080282bc   Section        0  components.o(.text)
    rti_start                                0x080282bd   Thumb Code     4  components.o(.text)
    rti_board_end                            0x080282c1   Thumb Code     4  components.o(.text)
    rti_end                                  0x080282c5   Thumb Code     4  components.o(.text)
    .text                                    0x080282fc   Section        0  atoi.o(.text)
    .text                                    0x08028316   Section        0  memcmp.o(.text)
    .text                                    0x0802836e   Section        0  strcpy.o(.text)
    .text                                    0x080283b6   Section        0  strrchr.o(.text)
    .text                                    0x080283cc   Section        0  strlen.o(.text)
    .text                                    0x0802840a   Section        0  strncmp.o(.text)
    .text                                    0x080284a0   Section      138  rt_memcpy_v6.o(.text)
    .text                                    0x0802852a   Section      100  rt_memcpy_w.o(.text)
    .text                                    0x0802858e   Section       68  rt_memclr.o(.text)
    .text                                    0x080285d2   Section       78  rt_memclr_w.o(.text)
    .text                                    0x08028620   Section       86  strncpy.o(.text)
    .text                                    0x08028678   Section      128  strcmpv7m.o(.text)
    .text                                    0x080286f8   Section        0  mktime.o(.text)
    _tm_carry                                0x080286f9   Thumb Code    54  mktime.o(.text)
    .text                                    0x0802889c   Section        0  heapauxi.o(.text)
    .text                                    0x080288a4   Section        8  rt_errno_addr_intlibspace.o(.text)
    .text                                    0x080288ac   Section        0  strtol.o(.text)
    .text                                    0x0802891c   Section        8  libspace.o(.text)
    .text                                    0x08028924   Section       16  rt_ctype_table.o(.text)
    .text                                    0x08028934   Section        0  _strtoul.o(.text)
    .text                                    0x080289d2   Section       74  sys_stackheap_outer.o(.text)
    .text                                    0x08028a1c   Section        8  rt_locale_intlibspace.o(.text)
    .text                                    0x08028a24   Section        0  _chval.o(.text)
    .text                                    0x08028a40   Section        0  exit.o(.text)
    .text                                    0x08028a4c   Section        0  sys_exit.o(.text)
    .text                                    0x08028a58   Section        2  use_no_semi.o(.text)
    .text                                    0x08028a5a   Section        0  indicate_semi.o(.text)
    locale$$code                             0x08028a5c   Section       44  lc_ctype_c.o(locale$$code)
    x$fpl$fpinit                             0x08028a88   Section       10  fpinit.o(x$fpl$fpinit)
    $v0                                      0x08028a88   Number         0  fpinit.o(x$fpl$fpinit)
    .constdata                               0x08028a94   Section       72  stm32f4xx_dma.o(.constdata)
    .constdata                               0x08028adc   Section       72  stm32f4xx_exti.o(.constdata)
    .constdata                               0x08028b24   Section       72  stm32f4xx_gpio.o(.constdata)
    .constdata                               0x08028b6c   Section       72  stm32f4xx_rcc.o(.constdata)
    .constdata                               0x08028bb4   Section       72  stm32f4xx_sdio.o(.constdata)
    .constdata                               0x08028bfc   Section       76  stm32f4xx_syscfg.o(.constdata)
    .constdata                               0x08028c48   Section       72  stm32f4xx_usart.o(.constdata)
    .constdata                               0x08028c90   Section       12  board.o(.constdata)
    .constdata                               0x08028c9c   Section       72  usart.o(.constdata)
    stm32_uart_ops                           0x08028c9c   Data          20  usart.o(.constdata)
    __FUNCTION__                             0x08028cb0   Data          16  usart.o(.constdata)
    __FUNCTION__                             0x08028cc0   Data          14  usart.o(.constdata)
    __FUNCTION__                             0x08028cce   Data          11  usart.o(.constdata)
    __FUNCTION__                             0x08028cd9   Data          11  usart.o(.constdata)
    .constdata                               0x08028ce4   Section       16  stm32f4xx_sd.o(.constdata)
    ops                                      0x08028ce4   Data          16  stm32f4xx_sd.o(.constdata)
    .constdata                               0x08028cf4   Section       27  stm32f4xx_eth.o(.constdata)
    .constdata                               0x08028d0f   Section       64  tcpclient.o(.constdata)
    send_data                                0x08028d0f   Data          35  tcpclient.o(.constdata)
    .constdata                               0x08028d50   Section       62  tcpserver.o(.constdata)
    send_data                                0x08028d50   Data          35  tcpserver.o(.constdata)
    .constdata                               0x08028d8e   Section      168  device.o(.constdata)
    __FUNCTION__                             0x08028d8e   Data          21  device.o(.constdata)
    __FUNCTION__                             0x08028da3   Data          15  device.o(.constdata)
    __FUNCTION__                             0x08028db2   Data          15  device.o(.constdata)
    __FUNCTION__                             0x08028dc1   Data          16  device.o(.constdata)
    __FUNCTION__                             0x08028dd1   Data          15  device.o(.constdata)
    __FUNCTION__                             0x08028de0   Data          16  device.o(.constdata)
    __FUNCTION__                             0x08028df0   Data          18  device.o(.constdata)
    __FUNCTION__                             0x08028e02   Data          26  device.o(.constdata)
    __FUNCTION__                             0x08028e1c   Data          26  device.o(.constdata)
    .constdata                               0x08028e36   Section       22  idle.o(.constdata)
    __FUNCTION__                             0x08028e36   Data          22  idle.o(.constdata)
    .constdata                               0x08028e4c   Section      471  ipc.o(.constdata)
    __FUNCTION__                             0x08028e4c   Data          12  ipc.o(.constdata)
    __FUNCTION__                             0x08028e58   Data          14  ipc.o(.constdata)
    __FUNCTION__                             0x08028e66   Data          14  ipc.o(.constdata)
    __FUNCTION__                             0x08028e74   Data          14  ipc.o(.constdata)
    __FUNCTION__                             0x08028e82   Data          12  ipc.o(.constdata)
    __FUNCTION__                             0x08028e8e   Data          15  ipc.o(.constdata)
    __FUNCTION__                             0x08028e9d   Data          14  ipc.o(.constdata)
    __FUNCTION__                             0x08028eab   Data          16  ipc.o(.constdata)
    __FUNCTION__                             0x08028ebb   Data          16  ipc.o(.constdata)
    __FUNCTION__                             0x08028ecb   Data          16  ipc.o(.constdata)
    __FUNCTION__                             0x08028edb   Data          14  ipc.o(.constdata)
    __FUNCTION__                             0x08028ee9   Data          17  ipc.o(.constdata)
    __FUNCTION__                             0x08028efa   Data          14  ipc.o(.constdata)
    __FUNCTION__                             0x08028f08   Data          16  ipc.o(.constdata)
    __FUNCTION__                             0x08028f18   Data          16  ipc.o(.constdata)
    __FUNCTION__                             0x08028f28   Data          16  ipc.o(.constdata)
    __FUNCTION__                             0x08028f38   Data          14  ipc.o(.constdata)
    __FUNCTION__                             0x08028f46   Data          14  ipc.o(.constdata)
    __FUNCTION__                             0x08028f54   Data          17  ipc.o(.constdata)
    __FUNCTION__                             0x08028f65   Data          11  ipc.o(.constdata)
    __FUNCTION__                             0x08028f70   Data          13  ipc.o(.constdata)
    __FUNCTION__                             0x08028f7d   Data          13  ipc.o(.constdata)
    __FUNCTION__                             0x08028f8a   Data          13  ipc.o(.constdata)
    __FUNCTION__                             0x08028f97   Data          16  ipc.o(.constdata)
    __FUNCTION__                             0x08028fa7   Data          11  ipc.o(.constdata)
    __FUNCTION__                             0x08028fb2   Data          14  ipc.o(.constdata)
    __FUNCTION__                             0x08028fc0   Data          11  ipc.o(.constdata)
    __FUNCTION__                             0x08028fcb   Data          13  ipc.o(.constdata)
    __FUNCTION__                             0x08028fd8   Data          13  ipc.o(.constdata)
    __FUNCTION__                             0x08028fe5   Data          13  ipc.o(.constdata)
    __FUNCTION__                             0x08028ff2   Data          11  ipc.o(.constdata)
    __FUNCTION__                             0x08028ffd   Data          13  ipc.o(.constdata)
    __FUNCTION__                             0x0802900a   Data          11  ipc.o(.constdata)
    __FUNCTION__                             0x08029015   Data          14  ipc.o(.constdata)
    .constdata                               0x08029023   Section      290  kservice.o(.constdata)
    small_digits                             0x08029123   Data          17  kservice.o(.constdata)
    large_digits                             0x08029134   Data          17  kservice.o(.constdata)
    .constdata                               0x08029148   Section      352  mem.o(.constdata)
    __FUNCTION__                             0x0802916f   Data          11  mem.o(.constdata)
    __FUNCTION__                             0x0802917a   Data          20  mem.o(.constdata)
    __FUNCTION__                             0x0802918e   Data          10  mem.o(.constdata)
    __FUNCTION__                             0x08029198   Data          11  mem.o(.constdata)
    __FUNCTION__                             0x080291a3   Data          10  mem.o(.constdata)
    __FUNCTION__                             0x080291ad   Data           8  mem.o(.constdata)
    .constdata                               0x080292a8   Section       94  object.o(.constdata)
    __FUNCTION__                             0x080292a8   Data          17  object.o(.constdata)
    __FUNCTION__                             0x080292b9   Data          19  object.o(.constdata)
    __FUNCTION__                             0x080292cc   Data          17  object.o(.constdata)
    __FUNCTION__                             0x080292dd   Data          26  object.o(.constdata)
    __FUNCTION__                             0x080292f7   Data          15  object.o(.constdata)
    .constdata                               0x08029306   Section       78  scheduler.o(.constdata)
    __FUNCTION__                             0x08029306   Data          26  scheduler.o(.constdata)
    __FUNCTION__                             0x08029320   Data          26  scheduler.o(.constdata)
    __FUNCTION__                             0x0802933a   Data          26  scheduler.o(.constdata)
    .constdata                               0x08029354   Section      170  thread.o(.constdata)
    __FUNCTION__                             0x08029354   Data          16  thread.o(.constdata)
    __FUNCTION__                             0x08029364   Data          15  thread.o(.constdata)
    __FUNCTION__                             0x08029373   Data          18  thread.o(.constdata)
    __FUNCTION__                             0x08029385   Data          17  thread.o(.constdata)
    __FUNCTION__                             0x08029396   Data          17  thread.o(.constdata)
    __FUNCTION__                             0x080293a7   Data          16  thread.o(.constdata)
    __FUNCTION__                             0x080293b7   Data          18  thread.o(.constdata)
    __FUNCTION__                             0x080293c9   Data          18  thread.o(.constdata)
    __FUNCTION__                             0x080293db   Data          17  thread.o(.constdata)
    __FUNCTION__                             0x080293ec   Data          18  thread.o(.constdata)
    .constdata                               0x080293fe   Section       92  timer.o(.constdata)
    __FUNCTION__                             0x080293fe   Data          14  timer.o(.constdata)
    __FUNCTION__                             0x0802940c   Data          16  timer.o(.constdata)
    __FUNCTION__                             0x0802941c   Data          16  timer.o(.constdata)
    __FUNCTION__                             0x0802942c   Data          15  timer.o(.constdata)
    __FUNCTION__                             0x0802943b   Data          14  timer.o(.constdata)
    __FUNCTION__                             0x08029449   Data          17  timer.o(.constdata)
    .constdata                               0x0802945a   Section       19  cpuport.o(.constdata)
    __FUNCTION__                             0x0802945a   Data          19  cpuport.o(.constdata)
    .constdata                               0x0802946d   Section       19  mmcsd_core.o(.constdata)
    __FUNCTION__                             0x0802946d   Data          19  mmcsd_core.o(.constdata)
    .constdata                               0x08029480   Section      192  sd.o(.constdata)
    tran_unit                                0x08029480   Data          32  sd.o(.constdata)
    tran_value                               0x080294a0   Data          16  sd.o(.constdata)
    tacc_uint                                0x080294b0   Data          32  sd.o(.constdata)
    tacc_value                               0x080294d0   Data          16  sd.o(.constdata)
    .constdata                               0x08029540   Section      285  sdio.o(.constdata)
    speed_value                              0x08029540   Data          16  sdio.o(.constdata)
    speed_unit                               0x08029550   Data          32  sdio.o(.constdata)
    __FUNCTION__                             0x08029570   Data          21  sdio.o(.constdata)
    __FUNCTION__                             0x08029585   Data          18  sdio.o(.constdata)
    __FUNCTION__                             0x08029597   Data          20  sdio.o(.constdata)
    __FUNCTION__                             0x080295ab   Data          14  sdio.o(.constdata)
    __FUNCTION__                             0x080295b9   Data          25  sdio.o(.constdata)
    __FUNCTION__                             0x080295d2   Data          10  sdio.o(.constdata)
    __FUNCTION__                             0x080295dc   Data          16  sdio.o(.constdata)
    __FUNCTION__                             0x080295ec   Data          23  sdio.o(.constdata)
    __FUNCTION__                             0x08029603   Data          23  sdio.o(.constdata)
    __FUNCTION__                             0x0802961a   Data          16  sdio.o(.constdata)
    __FUNCTION__                             0x0802962a   Data          16  sdio.o(.constdata)
    __FUNCTION__                             0x0802963a   Data          17  sdio.o(.constdata)
    __FUNCTION__                             0x0802964b   Data          18  sdio.o(.constdata)
    .constdata                               0x0802965d   Section      134  serial.o(.constdata)
    __FUNCTION__                             0x0802965d   Data          15  serial.o(.constdata)
    __FUNCTION__                             0x0802966c   Data          15  serial.o(.constdata)
    __FUNCTION__                             0x0802967b   Data          16  serial.o(.constdata)
    __FUNCTION__                             0x0802968b   Data          15  serial.o(.constdata)
    __FUNCTION__                             0x0802969a   Data          16  serial.o(.constdata)
    __FUNCTION__                             0x080296aa   Data          18  serial.o(.constdata)
    __FUNCTION__                             0x080296bc   Data          22  serial.o(.constdata)
    __FUNCTION__                             0x080296d2   Data          17  serial.o(.constdata)
    .constdata                               0x080296e3   Section       75  dataqueue.o(.constdata)
    __FUNCTION__                             0x080296e3   Data          19  dataqueue.o(.constdata)
    __FUNCTION__                             0x080296f6   Data          19  dataqueue.o(.constdata)
    __FUNCTION__                             0x08029709   Data          18  dataqueue.o(.constdata)
    __FUNCTION__                             0x0802971b   Data          19  dataqueue.o(.constdata)
    .constdata                               0x0802972e   Section       96  shell.o(.constdata)
    __FUNCTION__                             0x0802972e   Data          13  shell.o(.constdata)
    __FUNCTION__                             0x0802973b   Data          17  shell.o(.constdata)
    __FUNCTION__                             0x0802974c   Data          17  shell.o(.constdata)
    __FUNCTION__                             0x0802975d   Data          15  shell.o(.constdata)
    __FUNCTION__                             0x0802976c   Data          15  shell.o(.constdata)
    __FUNCTION__                             0x0802977b   Data          19  shell.o(.constdata)
    .constdata                               0x08029790   Section      659  cmd.o(.constdata)
    .constdata                               0x08029a24   Section      196  finsh_ops.o(.constdata)
    .constdata                               0x08029ae8   Section       64  finsh_token.o(.constdata)
    finsh_name_table                         0x08029ae8   Data          64  finsh_token.o(.constdata)
    .constdata                               0x08029b28   Section       35  dfs.o(.constdata)
    __FUNCTION__                             0x08029b28   Data           9  dfs.o(.constdata)
    __FUNCTION__                             0x08029b31   Data           7  dfs.o(.constdata)
    __FUNCTION__                             0x08029b38   Data          19  dfs.o(.constdata)
    .constdata                               0x08029b4b   Section       70  dfs_fs.o(.constdata)
    __FUNCTION__                             0x08029b74   Data          29  dfs_fs.o(.constdata)
    .constdata                               0x08029b91   Section       95  dfs_file.o(.constdata)
    .constdata                               0x08029bf0   Section       25  dfs_posix.o(.constdata)
    .constdata                               0x08029c0c   Section      255  dfs_elm.o(.constdata)
    dfs_elm                                  0x08029c0c   Data          68  dfs_elm.o(.constdata)
    __FUNCTION__                             0x08029c50   Data          16  dfs_elm.o(.constdata)
    __FUNCTION__                             0x08029c60   Data          15  dfs_elm.o(.constdata)
    __FUNCTION__                             0x08029c6f   Data          14  dfs_elm.o(.constdata)
    __FUNCTION__                             0x08029c7d   Data          13  dfs_elm.o(.constdata)
    __FUNCTION__                             0x08029c8a   Data          14  dfs_elm.o(.constdata)
    __FUNCTION__                             0x08029c98   Data          14  dfs_elm.o(.constdata)
    __FUNCTION__                             0x08029ca6   Data          14  dfs_elm.o(.constdata)
    __FUNCTION__                             0x08029cb4   Data          17  dfs_elm.o(.constdata)
    .constdata                               0x08029d0c   Section       44  ff.o(.constdata)
    vst                                      0x08029d0c   Data          22  ff.o(.constdata)
    cst                                      0x08029d22   Data          22  ff.o(.constdata)
    .constdata                               0x08029d38   Section       64  sockets.o(.constdata)
    err_to_errno_table                       0x08029d38   Data          64  sockets.o(.constdata)
    .constdata                               0x08029d78   Section      248  sys_arch.o(.constdata)
    __FUNCTION__                             0x08029d78   Data          12  sys_arch.o(.constdata)
    __FUNCTION__                             0x08029d84   Data          13  sys_arch.o(.constdata)
    __FUNCTION__                             0x08029d91   Data          18  sys_arch.o(.constdata)
    __FUNCTION__                             0x08029da3   Data          14  sys_arch.o(.constdata)
    __FUNCTION__                             0x08029db1   Data          15  sys_arch.o(.constdata)
    __FUNCTION__                             0x08029dc0   Data          15  sys_arch.o(.constdata)
    __FUNCTION__                             0x08029dcf   Data          13  sys_arch.o(.constdata)
    __FUNCTION__                             0x08029ddc   Data          14  sys_arch.o(.constdata)
    __FUNCTION__                             0x08029dea   Data          14  sys_arch.o(.constdata)
    __FUNCTION__                             0x08029df8   Data          20  sys_arch.o(.constdata)
    __FUNCTION__                             0x08029e0c   Data          15  sys_arch.o(.constdata)
    __FUNCTION__                             0x08029e1b   Data          16  sys_arch.o(.constdata)
    .constdata                               0x08029e70   Section       28  memp.o(.constdata)
    .constdata                               0x08029e8c   Section       80  tcp.o(.constdata)
    .constdata                               0x08029edc   Section       85  tcp_out.o(.constdata)
    .constdata                               0x08029f34   Section       68  icmp.o(.constdata)
    .constdata                               0x08029f78   Section       73  inet_chksum.o(.constdata)
    .constdata                               0x08029fc4   Section       77  ip_addr.o(.constdata)
    .constdata                               0x0802a014   Section       80  etharp.o(.constdata)
    .constdata                               0x0802a064   Section      284  ethernetif.o(.constdata)
    __FUNCTION__                             0x0802a0f9   Data          22  ethernetif.o(.constdata)
    __FUNCTION__                             0x0802a10f   Data          20  ethernetif.o(.constdata)
    __FUNCTION__                             0x0802a123   Data          23  ethernetif.o(.constdata)
    .constdata                               0x0802a180   Section       12  _monlen.o(.constdata)
    .conststring                             0x0802a18c   Section      233  cmd.o(.conststring)
    .conststring                             0x0802a275   Section      216  finsh_error.o(.conststring)
    .conststring                             0x0802a34d   Section       44  finsh_token.o(.conststring)
    .conststring                             0x0802a379   Section        4  dfs_elm.o(.conststring)
    .conststring                             0x0802a37d   Section      104  tcp.o(.conststring)
    .rti_fn.0                                0x0802a3e8   Section        4  components.o(.rti_fn.0)
    .rti_fn.1.post                           0x0802a3ec   Section        4  components.o(.rti_fn.1.post)
    .rti_fn.2                                0x0802a3f0   Section        4  ethernetif.o(.rti_fn.2)
    .rti_fn.3                                0x0802a3f4   Section        4  shell.o(.rti_fn.3)
    .rti_fn.3                                0x0802a3f8   Section        4  dfs.o(.rti_fn.3)
    .rti_fn.3                                0x0802a3fc   Section        4  sys_arch.o(.rti_fn.3)
    .rti_fn.4                                0x0802a400   Section        4  dfs_elm.o(.rti_fn.4)
    .rti_fn.7                                0x0802a404   Section        4  components.o(.rti_fn.7)
    FSymTab                                  0x0802a408   Section       12  board.o(FSymTab)
    FSymTab                                  0x0802a414   Section       12  stm32f4xx_eth.o(FSymTab)
    FSymTab                                  0x0802a420   Section       12  tcpclient.o(FSymTab)
    FSymTab                                  0x0802a42c   Section       12  tcpserver.o(FSymTab)
    FSymTab                                  0x0802a438   Section       12  mem.o(FSymTab)
    FSymTab                                  0x0802a444   Section      144  cmd.o(FSymTab)
    FSymTab                                  0x0802a4d4   Section       24  dfs_fs.o(FSymTab)
    FSymTab                                  0x0802a4ec   Section       48  dfs_file.o(FSymTab)
    FSymTab                                  0x0802a51c   Section       12  dfs_posix.o(FSymTab)
    FSymTab                                  0x0802a528   Section       48  ethernetif.o(FSymTab)
    VSymTab                                  0x0802a578   Section       16  cmd.o(VSymTab)
    locale$$data                             0x0802a588   Section      272  lc_ctype_c.o(locale$$data)
    __lcctype_c_name                         0x0802a58c   Data           2  lc_ctype_c.o(locale$$data)
    __lcctype_c_start                        0x0802a594   Data           0  lc_ctype_c.o(locale$$data)
    __lcctype_c_end                          0x0802a698   Data           0  lc_ctype_c.o(locale$$data)
    .data                                    0x20000000   Section       20  system_stm32f4xx.o(.data)
    .data                                    0x20000014   Section       16  stm32f4xx_rcc.o(.data)
    APBAHBPrescTable                         0x20000014   Data          16  stm32f4xx_rcc.o(.data)
    .data                                    0x20000024   Section        8  usart.o(.data)
    .data                                    0x2000002c   Section        4  stm32f4xx_sd.o(.data)
    stm32f4_sdio                             0x2000002c   Data           4  stm32f4xx_sd.o(.data)
    .data                                    0x20000030   Section       24  stm32f4xx_eth.o(.data)
    tx_is_waiting                            0x20000030   Data           4  stm32f4xx_eth.o(.data)
    phy_speed                                0x20000034   Data           1  stm32f4xx_eth.o(.data)
    .data                                    0x20000048   Section        4  clock.o(.data)
    rt_tick                                  0x20000048   Data           4  clock.o(.data)
    .data                                    0x2000004c   Section        4  idle.o(.data)
    rt_thread_idle_hook                      0x2000004c   Data           4  idle.o(.data)
    .data                                    0x20000050   Section        1  irq.o(.data)
    .data                                    0x20000054   Section        8  kservice.o(.data)
    _console_device                          0x20000054   Data           4  kservice.o(.data)
    _errno                                   0x20000058   Data           4  kservice.o(.data)
    .data                                    0x2000005c   Section       32  mem.o(.data)
    rt_malloc_hook                           0x2000005c   Data           4  mem.o(.data)
    rt_free_hook                             0x20000060   Data           4  mem.o(.data)
    heap_ptr                                 0x20000064   Data           4  mem.o(.data)
    heap_end                                 0x20000068   Data           4  mem.o(.data)
    lfree                                    0x2000006c   Data           4  mem.o(.data)
    mem_size_aligned                         0x20000070   Data           4  mem.o(.data)
    used_mem                                 0x20000074   Data           4  mem.o(.data)
    max_mem                                  0x20000078   Data           4  mem.o(.data)
    .data                                    0x2000007c   Section      164  object.o(.data)
    rt_object_attach_hook                    0x2000010c   Data           4  object.o(.data)
    rt_object_detach_hook                    0x20000110   Data           4  object.o(.data)
    .data                                    0x20000120   Section       28  scheduler.o(.data)
    rt_scheduler_lock_nest                   0x20000120   Data           2  scheduler.o(.data)
    rt_scheduler_hook                        0x20000138   Data           4  scheduler.o(.data)
    .data                                    0x2000013c   Section       16  timer.o(.data)
    random_nr                                0x2000013c   Data           4  timer.o(.data)
    rt_timer_list                            0x20000140   Data           8  timer.o(.data)
    rt_timer_timeout_hook                    0x20000148   Data           4  timer.o(.data)
    .data                                    0x2000014c   Section       16  cpuport.o(.data)
    rt_exception_hook                        0x2000014c   Data           4  cpuport.o(.data)
    .data                                    0x2000015c   Section        8  block_dev.o(.data)
    blk_devices                              0x2000015c   Data           8  block_dev.o(.data)
    .data                                    0x20000164   Section       16  sdio.o(.data)
    sdio_cards                               0x20000164   Data           8  sdio.o(.data)
    sdio_drivers                             0x2000016c   Data           8  sdio.o(.data)
    .data                                    0x20000174   Section        4  shell.o(.data)
    .data                                    0x20000178   Section       16  symbol.o(.data)
    .data                                    0x20000188   Section        4  cmd.o(.data)
    dummy                                    0x20000188   Data           4  cmd.o(.data)
    .data                                    0x2000018c   Section        8  finsh_compiler.o(.data)
    .data                                    0x20000194   Section       61  finsh_error.o(.data)
    finsh_error_string_table                 0x20000194   Data          60  finsh_error.o(.data)
    .data                                    0x200001d4   Section        8  finsh_heap.o(.data)
    free_list                                0x200001d4   Data           4  finsh_heap.o(.data)
    allocate_list                            0x200001d8   Data           4  finsh_heap.o(.data)
    .data                                    0x200001dc   Section        4  finsh_var.o(.data)
    .data                                    0x200001e0   Section       12  finsh_vm.o(.data)
    .data                                    0x200001ec   Section        8  dfs_elm.o(.data)
    disk                                     0x200001ec   Data           8  dfs_elm.o(.data)
    .data                                    0x200001f4   Section       10  ff.o(.data)
    FatFs                                    0x200001f4   Data           8  ff.o(.data)
    Fsid                                     0x200001fc   Data           2  ff.o(.data)
    .data                                    0x20000200   Section       20  netdb.o(.data)
    s_aliases                                0x20000200   Data           4  netdb.o(.data)
    s_hostent_addr                           0x20000204   Data           4  netdb.o(.data)
    s_phostent_addr                          0x20000208   Data           8  netdb.o(.data)
    .data                                    0x20000214   Section        8  sockets.o(.data)
    select_cb_list                           0x20000214   Data           4  sockets.o(.data)
    select_cb_ctr                            0x20000218   Data           4  sockets.o(.data)
    .data                                    0x2000021c   Section       12  tcpip.o(.data)
    tcpip_init_done                          0x2000021c   Data           4  tcpip.o(.data)
    tcpip_init_done_arg                      0x20000220   Data           4  tcpip.o(.data)
    mbox                                     0x20000224   Data           4  tcpip.o(.data)
    .data                                    0x20000228   Section        6  sys_arch.o(.data)
    counter                                  0x20000228   Data           2  sys_arch.o(.data)
    counter                                  0x2000022a   Data           2  sys_arch.o(.data)
    counter                                  0x2000022c   Data           2  sys_arch.o(.data)
    .data                                    0x20000230   Section       20  dns.o(.data)
    dns_pcb                                  0x20000230   Data           4  dns.o(.data)
    dns_seqno                                0x20000234   Data           1  dns.o(.data)
    dns_servers                              0x20000238   Data           8  dns.o(.data)
    dns_payload                              0x20000240   Data           4  dns.o(.data)
    .data                                    0x20000244   Section        9  netif.o(.data)
    netif_num                                0x2000024c   Data           1  netif.o(.data)
    .data                                    0x2000024d   Section        1  pbuf.o(.data)
    .data                                    0x20000250   Section        4  raw.o(.data)
    raw_pcbs                                 0x20000250   Data           4  raw.o(.data)
    .data                                    0x20000254   Section       35  tcp.o(.data)
    tcp_port                                 0x20000254   Data           2  tcp.o(.data)
    iss                                      0x20000258   Data           4  tcp.o(.data)
    tcp_timer                                0x20000275   Data           1  tcp.o(.data)
    tcp_timer_ctr                            0x20000276   Data           1  tcp.o(.data)
    .data                                    0x20000278   Section       32  tcp_in.o(.data)
    tcphdr                                   0x20000278   Data           4  tcp_in.o(.data)
    iphdr                                    0x2000027c   Data           4  tcp_in.o(.data)
    seqno                                    0x20000280   Data           4  tcp_in.o(.data)
    ackno                                    0x20000284   Data           4  tcp_in.o(.data)
    flags                                    0x20000288   Data           1  tcp_in.o(.data)
    tcplen                                   0x2000028a   Data           2  tcp_in.o(.data)
    recv_flags                               0x2000028c   Data           1  tcp_in.o(.data)
    recv_data                                0x20000290   Data           4  tcp_in.o(.data)
    .data                                    0x20000298   Section        8  timers.o(.data)
    next_timeout                             0x20000298   Data           4  timers.o(.data)
    tcpip_tcp_timer_active                   0x2000029c   Data           4  timers.o(.data)
    .data                                    0x200002a0   Section        8  udp.o(.data)
    udp_port                                 0x200002a0   Data           2  udp.o(.data)
    .data                                    0x200002a8   Section       18  ip.o(.data)
    ip_id                                    0x200002b8   Data           2  ip.o(.data)
    .data                                    0x200002ba   Section        1  etharp.o(.data)
    etharp_cached_entry                      0x200002ba   Data           1  etharp.o(.data)
    .bss                                     0x200002bc   Section      192  usart.o(.bss)
    .bss                                     0x2000037c   Section       68  stm32f4xx_sd.o(.bss)
    .bss                                     0x200003c0   Section     9472  stm32f4xx_eth.o(.bss)
    DMARxDscrTab                             0x200003c0   Data         128  stm32f4xx_eth.o(.bss)
    DMATxDscrTab                             0x20000440   Data          64  stm32f4xx_eth.o(.bss)
    Rx_Buff                                  0x20000480   Data        6080  stm32f4xx_eth.o(.bss)
    Tx_Buff                                  0x20001c40   Data        3040  stm32f4xx_eth.o(.bss)
    stm32_eth_device                         0x20002820   Data         128  stm32f4xx_eth.o(.bss)
    tx_wait                                  0x200028a0   Data          32  stm32f4xx_eth.o(.bss)
    .bss                                     0x200028c0   Section     1152  idle.o(.bss)
    idle                                     0x200028c0   Data         128  idle.o(.bss)
    rt_thread_stack                          0x20002940   Data        1024  idle.o(.bss)
    .bss                                     0x20002d40   Section      128  kservice.o(.bss)
    rt_log_buf                               0x20002d40   Data         128  kservice.o(.bss)
    .bss                                     0x20002dc0   Section       32  mem.o(.bss)
    heap_sem                                 0x20002dc0   Data          32  mem.o(.bss)
    .bss                                     0x20002de0   Section      256  scheduler.o(.bss)
    .bss                                     0x20002ee0   Section     1216  mmcsd_core.o(.bss)
    mmcsd_detect_thread                      0x20002ee0   Data         128  mmcsd_core.o(.bss)
    mmcsd_stack                              0x20002f60   Data        1024  mmcsd_core.o(.bss)
    mmcsd_detect_mb                          0x20003360   Data          48  mmcsd_core.o(.bss)
    mmcsd_detect_mb_pool                     0x20003390   Data          16  mmcsd_core.o(.bss)
    .bss                                     0x200033a0   Section     2176  shell.o(.bss)
    finsh_thread                             0x200033a0   Data         128  shell.o(.bss)
    finsh_thread_stack                       0x20003420   Data        2048  shell.o(.bss)
    .bss                                     0x20003c20   Section      128  finsh_heap.o(.bss)
    .bss                                     0x20003ca0   Section      320  finsh_node.o(.bss)
    .bss                                     0x20003de0   Section      192  finsh_var.o(.bss)
    .bss                                     0x20003ea0   Section      384  finsh_vm.o(.bss)
    .bss                                     0x20004020   Section      212  dfs.o(.bss)
    fslock                                   0x20004050   Data          36  dfs.o(.bss)
    .bss                                     0x200040f4   Section      292  dfs_file.o(.bss)
    fd                                       0x200040f4   Data          32  dfs_file.o(.bss)
    dirent                                   0x20004114   Data         260  dfs_file.o(.bss)
    .bss                                     0x20004218   Section       20  netdb.o(.bss)
    s_hostent                                0x20004218   Data          20  netdb.o(.bss)
    .bss                                     0x2000422c   Section       96  sockets.o(.bss)
    sockets                                  0x2000422c   Data          96  sockets.o(.bss)
    .bss                                     0x2000428c   Section     1635  dns.o(.bss)
    dns_table                                0x2000428c   Data        1120  dns.o(.bss)
    dns_payload_buffer                       0x200046ec   Data         515  dns.o(.bss)
    .bss                                     0x200048f0   Section       16  tcp_in.o(.bss)
    inseg                                    0x200048f0   Data          16  tcp_in.o(.bss)
    .bss                                     0x20004900   Section       16  ip_addr.o(.bss)
    str                                      0x20004900   Data          16  ip_addr.o(.bss)
    .bss                                     0x20004910   Section      200  etharp.o(.bss)
    arp_table                                0x20004910   Data         200  etharp.o(.bss)
    .bss                                     0x200049d8   Section     1408  ethernetif.o(.bss)
    eth_tx_thread_mb                         0x200049d8   Data          48  ethernetif.o(.bss)
    eth_tx_thread                            0x20004a08   Data         128  ethernetif.o(.bss)
    eth_tx_thread_mb_pool                    0x20004a88   Data          16  ethernetif.o(.bss)
    eth_tx_thread_stack                      0x20004a98   Data         512  ethernetif.o(.bss)
    eth_rx_thread_mb                         0x20004c98   Data          48  ethernetif.o(.bss)
    eth_rx_thread                            0x20004cc8   Data         128  ethernetif.o(.bss)
    eth_rx_thread_mb_pool                    0x20004d48   Data          16  ethernetif.o(.bss)
    eth_rx_thread_stack                      0x20004d58   Data         512  ethernetif.o(.bss)
    .bss                                     0x20004f58   Section       96  libspace.o(.bss)
    HEAP                                     0x20004fb8   Section      512  startup_stm32f4xx.o(HEAP)
    Heap_Mem                                 0x20004fb8   Data         512  startup_stm32f4xx.o(HEAP)
    STACK                                    0x200051b8   Section     1024  startup_stm32f4xx.o(STACK)
    Stack_Mem                                0x200051b8   Data        1024  startup_stm32f4xx.o(STACK)
    __initial_sp                             0x200055b8   Data           0  startup_stm32f4xx.o(STACK)

    Global Symbols

    Symbol Name                              Value     Ov Type        Size  Object(Section)

    BuildAttributes$$THM_ISAv4$E$P$D$K$B$S$7EM$VFPi3$EXTD16$VFPS$VFMA$PE$A:L22UL41UL21$X:L11$S22US41US21$IEEE1$IW$USESV6$~STKCKD$USESV7$~SHL$OSPACE$ROPI$EBA8$UX$STANDARDLIB$REQ8$PRES8$EABIv2 0x00000000   Number         0  anon$$obj.o ABSOLUTE
    __ARM_use_no_argv                        0x00000000   Number         0  startup.o ABSOLUTE
    __ARM_exceptions_init                     - Undefined Weak Reference
    __alloca_initialize                       - Undefined Weak Reference
    __cpp_initialize__aeabi_                  - Undefined Weak Reference
    __cxa_finalize                            - Undefined Weak Reference
    __sigvec_lookup                           - Undefined Weak Reference
    _atexit_init                              - Undefined Weak Reference
    _call_atexit_fns                          - Undefined Weak Reference
    _clock_init                               - Undefined Weak Reference
    _fp_trap_init                             - Undefined Weak Reference
    _fp_trap_shutdown                         - Undefined Weak Reference
    _get_lc_collate                           - Undefined Weak Reference
    _get_lc_monetary                          - Undefined Weak Reference
    _get_lc_numeric                           - Undefined Weak Reference
    _get_lc_time                              - Undefined Weak Reference
    _getenv_init                              - Undefined Weak Reference
    _handle_redirection                       - Undefined Weak Reference
    _init_alloc                               - Undefined Weak Reference
    _init_user_alloc                          - Undefined Weak Reference
    _initio                                   - Undefined Weak Reference
    _rand_init                                - Undefined Weak Reference
    _signal_finish                            - Undefined Weak Reference
    _signal_init                              - Undefined Weak Reference
    _terminate_alloc                          - Undefined Weak Reference
    _terminate_user_alloc                     - Undefined Weak Reference
    _terminateio                              - Undefined Weak Reference
    __Vectors_Size                           0x00000188   Number         0  startup_stm32f4xx.o ABSOLUTE
    __Vectors                                0x08000000   Data           4  startup_stm32f4xx.o(RESET)
    __Vectors_End                            0x08000188   Data           0  startup_stm32f4xx.o(RESET)
    __main                                   0x08000189   Thumb Code     8  __main.o(!!!main)
    __scatterload                            0x08000191   Thumb Code     0  __scatter.o(!!!scatter)
    __scatterload_rt2                        0x08000191   Thumb Code    44  __scatter.o(!!!scatter)
    __scatterload_rt2_thumb_only             0x08000191   Thumb Code     0  __scatter.o(!!!scatter)
    __scatterload_null                       0x0800019f   Thumb Code     0  __scatter.o(!!!scatter)
    __decompress                             0x080001c5   Thumb Code    90  __dczerorl2.o(!!dczerorl2)
    __decompress1                            0x080001c5   Thumb Code     0  __dczerorl2.o(!!dczerorl2)
    __scatterload_zeroinit                   0x08000221   Thumb Code    28  __scatter_zi.o(!!handler_zi)
    __rt_lib_init                            0x0800023d   Thumb Code     0  libinit.o(.ARM.Collect$$libinit$$00000000)
    __rt_lib_init_fp_1                       0x0800023f   Thumb Code     0  libinit2.o(.ARM.Collect$$libinit$$00000001)
    __rt_lib_init_heap_1                     0x08000243   Thumb Code     0  libinit2.o(.ARM.Collect$$libinit$$00000008)
    __rt_lib_init_lc_common                  0x08000243   Thumb Code     0  libinit2.o(.ARM.Collect$$libinit$$0000000D)
    __rt_lib_init_rand_1                     0x08000243   Thumb Code     0  libinit2.o(.ARM.Collect$$libinit$$0000000C)
    __rt_lib_init_user_alloc_1               0x08000243   Thumb Code     0  libinit2.o(.ARM.Collect$$libinit$$0000000A)
    __rt_lib_init_lc_collate_1               0x08000249   Thumb Code     0  libinit2.o(.ARM.Collect$$libinit$$0000000F)
    __rt_lib_init_lc_ctype_2                 0x08000249   Thumb Code     0  libinit2.o(.ARM.Collect$$libinit$$00000010)
    __rt_lib_init_alloca_1                   0x08000255   Thumb Code     0  libinit2.o(.ARM.Collect$$libinit$$0000002C)
    __rt_lib_init_argv_1                     0x08000255   Thumb Code     0  libinit2.o(.ARM.Collect$$libinit$$0000002A)
    __rt_lib_init_atexit_1                   0x08000255   Thumb Code     0  libinit2.o(.ARM.Collect$$libinit$$00000019)
    __rt_lib_init_clock_1                    0x08000255   Thumb Code     0  libinit2.o(.ARM.Collect$$libinit$$0000001F)
    __rt_lib_init_cpp_1                      0x08000255   Thumb Code     0  libinit2.o(.ARM.Collect$$libinit$$00000030)
    __rt_lib_init_exceptions_1               0x08000255   Thumb Code     0  libinit2.o(.ARM.Collect$$libinit$$0000002E)
    __rt_lib_init_fp_trap_1                  0x08000255   Thumb Code     0  libinit2.o(.ARM.Collect$$libinit$$0000001D)
    __rt_lib_init_getenv_1                   0x08000255   Thumb Code     0  libinit2.o(.ARM.Collect$$libinit$$00000021)
    __rt_lib_init_lc_ctype_1                 0x08000255   Thumb Code     0  libinit2.o(.ARM.Collect$$libinit$$00000011)
    __rt_lib_init_lc_monetary_1              0x08000255   Thumb Code     0  libinit2.o(.ARM.Collect$$libinit$$00000013)
    __rt_lib_init_lc_numeric_1               0x08000255   Thumb Code     0  libinit2.o(.ARM.Collect$$libinit$$00000015)
    __rt_lib_init_lc_time_1                  0x08000255   Thumb Code     0  libinit2.o(.ARM.Collect$$libinit$$00000017)
    __rt_lib_init_return                     0x08000255   Thumb Code     0  libinit2.o(.ARM.Collect$$libinit$$00000031)
    __rt_lib_init_signal_1                   0x08000255   Thumb Code     0  libinit2.o(.ARM.Collect$$libinit$$0000001B)
    __rt_lib_init_stdio_1                    0x08000255   Thumb Code     0  libinit2.o(.ARM.Collect$$libinit$$00000023)
    __rt_lib_shutdown                        0x08000257   Thumb Code     0  libshutdown.o(.ARM.Collect$$libshutdown$$00000000)
    __rt_lib_shutdown_fp_trap_1              0x08000259   Thumb Code     0  libshutdown2.o(.ARM.Collect$$libshutdown$$00000006)
    __rt_lib_shutdown_heap_1                 0x08000259   Thumb Code     0  libshutdown2.o(.ARM.Collect$$libshutdown$$0000000E)
    __rt_lib_shutdown_return                 0x08000259   Thumb Code     0  libshutdown2.o(.ARM.Collect$$libshutdown$$0000000F)
    __rt_lib_shutdown_signal_1               0x08000259   Thumb Code     0  libshutdown2.o(.ARM.Collect$$libshutdown$$00000009)
    __rt_lib_shutdown_stdio_1                0x08000259   Thumb Code     0  libshutdown2.o(.ARM.Collect$$libshutdown$$00000003)
    __rt_lib_shutdown_user_alloc_1           0x08000259   Thumb Code     0  libshutdown2.o(.ARM.Collect$$libshutdown$$0000000B)
    __rt_entry                               0x0800025b   Thumb Code     0  rtentry.o(.ARM.Collect$$rtentry$$00000000)
    __rt_entry_presh_1                       0x0800025b   Thumb Code     0  rtentry2.o(.ARM.Collect$$rtentry$$00000002)
    __rt_entry_sh                            0x0800025b   Thumb Code     0  rtentry4.o(.ARM.Collect$$rtentry$$00000004)
    __rt_entry_li                            0x08000261   Thumb Code     0  rtentry2.o(.ARM.Collect$$rtentry$$0000000A)
    __rt_entry_postsh_1                      0x08000261   Thumb Code     0  rtentry2.o(.ARM.Collect$$rtentry$$00000009)
    __rt_entry_main                          0x08000265   Thumb Code     0  rtentry2.o(.ARM.Collect$$rtentry$$0000000D)
    __rt_entry_postli_1                      0x08000265   Thumb Code     0  rtentry2.o(.ARM.Collect$$rtentry$$0000000C)
    __rt_exit                                0x0800026d   Thumb Code     0  rtexit.o(.ARM.Collect$$rtexit$$00000000)
    __rt_exit_ls                             0x0800026f   Thumb Code     0  rtexit2.o(.ARM.Collect$$rtexit$$00000003)
    __rt_exit_prels_1                        0x0800026f   Thumb Code     0  rtexit2.o(.ARM.Collect$$rtexit$$00000002)
    __rt_exit_exit                           0x08000273   Thumb Code     0  rtexit2.o(.ARM.Collect$$rtexit$$00000004)
    SystemInit                               0x08000353   Thumb Code    88  system_stm32f4xx.o(.text)
    SystemCoreClockUpdate                    0x080003ab   Thumb Code   174  system_stm32f4xx.o(.text)
    NVIC_PriorityGroupConfig                 0x08000485   Thumb Code    54  misc.o(.text)
    NVIC_Init                                0x080004bb   Thumb Code   166  misc.o(.text)
    NVIC_SetVectorTable                      0x08000561   Thumb Code    60  misc.o(.text)
    NVIC_SystemLPConfig                      0x0800059d   Thumb Code    78  misc.o(.text)
    SysTick_CLKSourceConfig                  0x080005eb   Thumb Code    62  misc.o(.text)
    DMA_DeInit                               0x08000681   Thumb Code   462  stm32f4xx_dma.o(.text)
    DMA_Init                                 0x0800084f   Thumb Code   684  stm32f4xx_dma.o(.text)
    DMA_StructInit                           0x08000afb   Thumb Code    34  stm32f4xx_dma.o(.text)
    DMA_Cmd                                  0x08000b1d   Thumb Code   182  stm32f4xx_dma.o(.text)
    DMA_PeriphIncOffsetSizeConfig            0x08000bd3   Thumb Code   184  stm32f4xx_dma.o(.text)
    DMA_FlowControllerConfig                 0x08000c8b   Thumb Code   182  stm32f4xx_dma.o(.text)
    DMA_SetCurrDataCounter                   0x08000d41   Thumb Code   146  stm32f4xx_dma.o(.text)
    DMA_GetCurrDataCounter                   0x08000dd3   Thumb Code   146  stm32f4xx_dma.o(.text)
    DMA_DoubleBufferModeConfig               0x08000e65   Thumb Code   204  stm32f4xx_dma.o(.text)
    DMA_DoubleBufferModeCmd                  0x08000f31   Thumb Code   182  stm32f4xx_dma.o(.text)
    DMA_MemoryTargetConfig                   0x08000fe7   Thumb Code   174  stm32f4xx_dma.o(.text)
    DMA_GetCurrentMemoryTarget               0x08001095   Thumb Code   160  stm32f4xx_dma.o(.text)
    DMA_GetCmdStatus                         0x08001135   Thumb Code   160  stm32f4xx_dma.o(.text)
    DMA_GetFIFOStatus                        0x080011d5   Thumb Code   152  stm32f4xx_dma.o(.text)
    DMA_GetFlagStatus                        0x0800126d   Thumb Code   470  stm32f4xx_dma.o(.text)
    DMA_ClearFlag                            0x08001443   Thumb Code   216  stm32f4xx_dma.o(.text)
    DMA_ITConfig                             0x0800151b   Thumb Code   238  stm32f4xx_dma.o(.text)
    DMA_GetITStatus                          0x08001609   Thumb Code   606  stm32f4xx_dma.o(.text)
    DMA_ClearITPendingBit                    0x08001867   Thumb Code   216  stm32f4xx_dma.o(.text)
    EXTI_DeInit                              0x080019d9   Thumb Code    28  stm32f4xx_exti.o(.text)
    EXTI_Init                                0x080019f5   Thumb Code   236  stm32f4xx_exti.o(.text)
    EXTI_StructInit                          0x08001ae1   Thumb Code    16  stm32f4xx_exti.o(.text)
    EXTI_GenerateSWInterrupt                 0x08001af1   Thumb Code    38  stm32f4xx_exti.o(.text)
    EXTI_GetFlagStatus                       0x08001b17   Thumb Code   158  stm32f4xx_exti.o(.text)
    EXTI_ClearFlag                           0x08001bb5   Thumb Code    30  stm32f4xx_exti.o(.text)
    EXTI_GetITStatus                         0x08001bd3   Thumb Code   172  stm32f4xx_exti.o(.text)
    EXTI_ClearITPendingBit                   0x08001c7f   Thumb Code    32  stm32f4xx_exti.o(.text)
    GPIO_DeInit                              0x08001cad   Thumb Code   284  stm32f4xx_gpio.o(.text)
    GPIO_Init                                0x08001dc9   Thumb Code   342  stm32f4xx_gpio.o(.text)
    GPIO_StructInit                          0x08001f1f   Thumb Code    18  stm32f4xx_gpio.o(.text)
    GPIO_PinLockConfig                       0x08001f31   Thumb Code   122  stm32f4xx_gpio.o(.text)
    GPIO_ReadInputDataBit                    0x08001fab   Thumb Code   182  stm32f4xx_gpio.o(.text)
    GPIO_ReadInputData                       0x08002061   Thumb Code   116  stm32f4xx_gpio.o(.text)
    GPIO_ReadOutputDataBit                   0x080020d5   Thumb Code   182  stm32f4xx_gpio.o(.text)
    GPIO_ReadOutputData                      0x0800218b   Thumb Code    76  stm32f4xx_gpio.o(.text)
    GPIO_SetBits                             0x080021d7   Thumb Code    94  stm32f4xx_gpio.o(.text)
    GPIO_ResetBits                           0x08002235   Thumb Code    94  stm32f4xx_gpio.o(.text)
    GPIO_WriteBit                            0x08002293   Thumb Code   194  stm32f4xx_gpio.o(.text)
    GPIO_Write                               0x08002355   Thumb Code    76  stm32f4xx_gpio.o(.text)
    GPIO_ToggleBits                          0x080023a1   Thumb Code    80  stm32f4xx_gpio.o(.text)
    GPIO_PinAFConfig                         0x080023f1   Thumb Code   382  stm32f4xx_gpio.o(.text)
    RCC_DeInit                               0x08002575   Thumb Code    60  stm32f4xx_rcc.o(.text)
    RCC_HSEConfig                            0x080025b1   Thumb Code    38  stm32f4xx_rcc.o(.text)
    RCC_GetFlagStatus                        0x080025d7   Thumb Code   130  stm32f4xx_rcc.o(.text)
    RCC_WaitForHSEStartUp                    0x08002659   Thumb Code    56  stm32f4xx_rcc.o(.text)
    RCC_AdjustHSICalibrationValue            0x08002691   Thumb Code    38  stm32f4xx_rcc.o(.text)
    RCC_HSICmd                               0x080026b7   Thumb Code    28  stm32f4xx_rcc.o(.text)
    RCC_LSEConfig                            0x080026d3   Thumb Code    72  stm32f4xx_rcc.o(.text)
    RCC_LSICmd                               0x0800271b   Thumb Code    28  stm32f4xx_rcc.o(.text)
    RCC_PLLConfig                            0x08002737   Thumb Code   156  stm32f4xx_rcc.o(.text)
    RCC_PLLCmd                               0x080027d3   Thumb Code    28  stm32f4xx_rcc.o(.text)
    RCC_PLLI2SConfig                         0x080027ef   Thumb Code    62  stm32f4xx_rcc.o(.text)
    RCC_PLLI2SCmd                            0x0800282d   Thumb Code    28  stm32f4xx_rcc.o(.text)
    RCC_ClockSecuritySystemCmd               0x08002849   Thumb Code    28  stm32f4xx_rcc.o(.text)
    RCC_MCO1Config                           0x08002865   Thumb Code   102  stm32f4xx_rcc.o(.text)
    RCC_MCO2Config                           0x080028cb   Thumb Code   102  stm32f4xx_rcc.o(.text)
    RCC_SYSCLKConfig                         0x08002931   Thumb Code    68  stm32f4xx_rcc.o(.text)
    RCC_GetSYSCLKSource                      0x08002975   Thumb Code    10  stm32f4xx_rcc.o(.text)
    RCC_HCLKConfig                           0x0800297f   Thumb Code    66  stm32f4xx_rcc.o(.text)
    RCC_PCLK1Config                          0x080029c1   Thumb Code    58  stm32f4xx_rcc.o(.text)
    RCC_PCLK2Config                          0x080029fb   Thumb Code    60  stm32f4xx_rcc.o(.text)
    RCC_GetClocksFreq                        0x08002a37   Thumb Code   214  stm32f4xx_rcc.o(.text)
    RCC_RTCCLKConfig                         0x08002b0d   Thumb Code   260  stm32f4xx_rcc.o(.text)
    RCC_RTCCLKCmd                            0x08002c11   Thumb Code    28  stm32f4xx_rcc.o(.text)
    RCC_BackupResetCmd                       0x08002c2d   Thumb Code    30  stm32f4xx_rcc.o(.text)
    RCC_I2SCLKConfig                         0x08002c4b   Thumb Code    28  stm32f4xx_rcc.o(.text)
    RCC_AHB1PeriphClockCmd                   0x08002c67   Thumb Code    78  stm32f4xx_rcc.o(.text)
    RCC_AHB2PeriphClockCmd                   0x08002cb5   Thumb Code    78  stm32f4xx_rcc.o(.text)
    RCC_AHB3PeriphClockCmd                   0x08002d03   Thumb Code   234  stm32f4xx_rcc.o(.text)
    RCC_APB1PeriphClockCmd                   0x08002ded   Thumb Code    70  stm32f4xx_rcc.o(.text)
    RCC_APB2PeriphClockCmd                   0x08002e33   Thumb Code    78  stm32f4xx_rcc.o(.text)
    RCC_AHB1PeriphResetCmd                   0x08002e81   Thumb Code    78  stm32f4xx_rcc.o(.text)
    RCC_AHB2PeriphResetCmd                   0x08002ecf   Thumb Code    78  stm32f4xx_rcc.o(.text)
    RCC_AHB3PeriphResetCmd                   0x08002f1d   Thumb Code    78  stm32f4xx_rcc.o(.text)
    RCC_APB1PeriphResetCmd                   0x08002f6b   Thumb Code    78  stm32f4xx_rcc.o(.text)
    RCC_APB2PeriphResetCmd                   0x08002fb9   Thumb Code    78  stm32f4xx_rcc.o(.text)
    RCC_AHB1PeriphClockLPModeCmd             0x08003007   Thumb Code    78  stm32f4xx_rcc.o(.text)
    RCC_AHB2PeriphClockLPModeCmd             0x08003055   Thumb Code    78  stm32f4xx_rcc.o(.text)
    RCC_AHB3PeriphClockLPModeCmd             0x080030a3   Thumb Code    78  stm32f4xx_rcc.o(.text)
    RCC_APB1PeriphClockLPModeCmd             0x080030f1   Thumb Code    78  stm32f4xx_rcc.o(.text)
    RCC_APB2PeriphClockLPModeCmd             0x0800313f   Thumb Code    78  stm32f4xx_rcc.o(.text)
    RCC_ITConfig                             0x0800318d   Thumb Code   108  stm32f4xx_rcc.o(.text)
    RCC_ClearFlag                            0x080031f9   Thumb Code    14  stm32f4xx_rcc.o(.text)
    RCC_GetITStatus                          0x08003207   Thumb Code    66  stm32f4xx_rcc.o(.text)
    RCC_ClearITPendingBit                    0x08003249   Thumb Code    32  stm32f4xx_rcc.o(.text)
    SDIO_DeInit                              0x08003271   Thumb Code    22  stm32f4xx_sdio.o(.text)
    SDIO_Init                                0x08003287   Thumb Code   174  stm32f4xx_sdio.o(.text)
    SDIO_StructInit                          0x08003335   Thumb Code    16  stm32f4xx_sdio.o(.text)
    SDIO_ClockCmd                            0x08003345   Thumb Code    28  stm32f4xx_sdio.o(.text)
    SDIO_SetPowerState                       0x08003361   Thumb Code    30  stm32f4xx_sdio.o(.text)
    SDIO_GetPowerState                       0x0800337f   Thumb Code    12  stm32f4xx_sdio.o(.text)
    SDIO_SendCommand                         0x0800338b   Thumb Code   148  stm32f4xx_sdio.o(.text)
    SDIO_CmdStructInit                       0x0800341f   Thumb Code    14  stm32f4xx_sdio.o(.text)
    SDIO_GetCommandResponse                  0x0800342d   Thumb Code    10  stm32f4xx_sdio.o(.text)
    SDIO_GetResponse                         0x08003437   Thumb Code    48  stm32f4xx_sdio.o(.text)
    SDIO_DataConfig                          0x08003467   Thumb Code   238  stm32f4xx_sdio.o(.text)
    SDIO_DataStructInit                      0x08003555   Thumb Code    20  stm32f4xx_sdio.o(.text)
    SDIO_GetDataCounter                      0x08003569   Thumb Code     8  stm32f4xx_sdio.o(.text)
    SDIO_ReadData                            0x08003571   Thumb Code     8  stm32f4xx_sdio.o(.text)
    SDIO_WriteData                           0x08003579   Thumb Code     8  stm32f4xx_sdio.o(.text)
    SDIO_GetFIFOCount                        0x08003581   Thumb Code     8  stm32f4xx_sdio.o(.text)
    SDIO_StartSDIOReadWait                   0x08003589   Thumb Code    28  stm32f4xx_sdio.o(.text)
    SDIO_StopSDIOReadWait                    0x080035a5   Thumb Code    30  stm32f4xx_sdio.o(.text)
    SDIO_SetSDIOReadWaitMode                 0x080035c3   Thumb Code    30  stm32f4xx_sdio.o(.text)
    SDIO_SetSDIOOperation                    0x080035e1   Thumb Code    30  stm32f4xx_sdio.o(.text)
    SDIO_SendSDIOSuspendCmd                  0x080035ff   Thumb Code    28  stm32f4xx_sdio.o(.text)
    SDIO_CommandCompletionCmd                0x0800361b   Thumb Code    28  stm32f4xx_sdio.o(.text)
    SDIO_CEATAITCmd                          0x08003637   Thumb Code    32  stm32f4xx_sdio.o(.text)
    SDIO_SendCEATACmd                        0x08003657   Thumb Code    28  stm32f4xx_sdio.o(.text)
    SDIO_DMACmd                              0x08003673   Thumb Code    62  stm32f4xx_sdio.o(.text)
    SDIO_ITConfig                            0x080036b1   Thumb Code    70  stm32f4xx_sdio.o(.text)
    SDIO_GetFlagStatus                       0x080036f7   Thumb Code   166  stm32f4xx_sdio.o(.text)
    SDIO_ClearFlag                           0x0800379d   Thumb Code    32  stm32f4xx_sdio.o(.text)
    SDIO_GetITStatus                         0x080037bd   Thumb Code   166  stm32f4xx_sdio.o(.text)
    SDIO_ClearITPendingBit                   0x08003863   Thumb Code    32  stm32f4xx_sdio.o(.text)
    SYSCFG_DeInit                            0x08003895   Thumb Code    22  stm32f4xx_syscfg.o(.text)
    SYSCFG_MemoryRemapConfig                 0x080038ab   Thumb Code    34  stm32f4xx_syscfg.o(.text)
    SYSCFG_EXTILineConfig                    0x080038cd   Thumb Code   186  stm32f4xx_syscfg.o(.text)
    SYSCFG_ETH_MediaInterfaceConfig          0x08003987   Thumb Code    26  stm32f4xx_syscfg.o(.text)
    SYSCFG_CompensationCellCmd               0x080039a1   Thumb Code    26  stm32f4xx_syscfg.o(.text)
    SYSCFG_GetCompensationCellStatus         0x080039bb   Thumb Code    22  stm32f4xx_syscfg.o(.text)
    USART_DeInit                             0x080039e1   Thumb Code   202  stm32f4xx_usart.o(.text)
    USART_Init                               0x08003aab   Thumb Code   456  stm32f4xx_usart.o(.text)
    USART_StructInit                         0x08003c73   Thumb Code    24  stm32f4xx_usart.o(.text)
    USART_ClockInit                          0x08003c8b   Thumb Code   166  stm32f4xx_usart.o(.text)
    USART_ClockStructInit                    0x08003d31   Thumb Code    12  stm32f4xx_usart.o(.text)
    USART_Cmd                                0x08003d3d   Thumb Code    96  stm32f4xx_usart.o(.text)
    USART_SetPrescaler                       0x08003d9d   Thumb Code   102  stm32f4xx_usart.o(.text)
    USART_OverSampling8Cmd                   0x08003e03   Thumb Code    94  stm32f4xx_usart.o(.text)
    USART_OneBitMethodCmd                    0x08003e61   Thumb Code    96  stm32f4xx_usart.o(.text)
    USART_SendData                           0x08003ec1   Thumb Code    80  stm32f4xx_usart.o(.text)
    USART_ReceiveData                        0x08003f11   Thumb Code    60  stm32f4xx_usart.o(.text)
    USART_SetAddress                         0x08003f4d   Thumb Code    88  stm32f4xx_usart.o(.text)
    USART_ReceiverWakeUpCmd                  0x08003fa5   Thumb Code    96  stm32f4xx_usart.o(.text)
    USART_WakeUpConfig                       0x08004005   Thumb Code    92  stm32f4xx_usart.o(.text)
    USART_LINBreakDetectLengthConfig         0x08004061   Thumb Code    90  stm32f4xx_usart.o(.text)
    USART_LINCmd                             0x080040bb   Thumb Code    96  stm32f4xx_usart.o(.text)
    USART_SendBreak                          0x0800411b   Thumb Code    62  stm32f4xx_usart.o(.text)
    USART_HalfDuplexCmd                      0x08004159   Thumb Code    96  stm32f4xx_usart.o(.text)
    USART_SetGuardTime                       0x080041b9   Thumb Code    86  stm32f4xx_usart.o(.text)
    USART_SmartCardCmd                       0x0800420f   Thumb Code    84  stm32f4xx_usart.o(.text)
    USART_SmartCardNACKCmd                   0x08004263   Thumb Code    84  stm32f4xx_usart.o(.text)
    USART_IrDAConfig                         0x080042b7   Thumb Code    90  stm32f4xx_usart.o(.text)
    USART_IrDACmd                            0x08004311   Thumb Code    96  stm32f4xx_usart.o(.text)
    USART_DMACmd                             0x08004371   Thumb Code   114  stm32f4xx_usart.o(.text)
    USART_ITConfig                           0x080043e3   Thumb Code   258  stm32f4xx_usart.o(.text)
    USART_GetFlagStatus                      0x080044e5   Thumb Code   170  stm32f4xx_usart.o(.text)
    USART_ClearFlag                          0x0800458f   Thumb Code   158  stm32f4xx_usart.o(.text)
    USART_GetITStatus                        0x0800462d   Thumb Code   276  stm32f4xx_usart.o(.text)
    USART_ClearITPendingBit                  0x08004741   Thumb Code   162  stm32f4xx_usart.o(.text)
    Reset_Handler                            0x08004801   Thumb Code     8  startup_stm32f4xx.o(.text)
    ADC_IRQHandler                           0x0800481b   Thumb Code     0  startup_stm32f4xx.o(.text)
    CAN1_RX0_IRQHandler                      0x0800481b   Thumb Code     0  startup_stm32f4xx.o(.text)
    CAN1_RX1_IRQHandler                      0x0800481b   Thumb Code     0  startup_stm32f4xx.o(.text)
    CAN1_SCE_IRQHandler                      0x0800481b   Thumb Code     0  startup_stm32f4xx.o(.text)
    CAN1_TX_IRQHandler                       0x0800481b   Thumb Code     0  startup_stm32f4xx.o(.text)
    CAN2_RX0_IRQHandler                      0x0800481b   Thumb Code     0  startup_stm32f4xx.o(.text)
    CAN2_RX1_IRQHandler                      0x0800481b   Thumb Code     0  startup_stm32f4xx.o(.text)
    CAN2_SCE_IRQHandler                      0x0800481b   Thumb Code     0  startup_stm32f4xx.o(.text)
    CAN2_TX_IRQHandler                       0x0800481b   Thumb Code     0  startup_stm32f4xx.o(.text)
    CRYP_IRQHandler                          0x0800481b   Thumb Code     0  startup_stm32f4xx.o(.text)
    DCMI_IRQHandler                          0x0800481b   Thumb Code     0  startup_stm32f4xx.o(.text)
    DMA1_Stream0_IRQHandler                  0x0800481b   Thumb Code     0  startup_stm32f4xx.o(.text)
    DMA1_Stream1_IRQHandler                  0x0800481b   Thumb Code     0  startup_stm32f4xx.o(.text)
    DMA1_Stream2_IRQHandler                  0x0800481b   Thumb Code     0  startup_stm32f4xx.o(.text)
    DMA1_Stream3_IRQHandler                  0x0800481b   Thumb Code     0  startup_stm32f4xx.o(.text)
    DMA1_Stream4_IRQHandler                  0x0800481b   Thumb Code     0  startup_stm32f4xx.o(.text)
    DMA1_Stream5_IRQHandler                  0x0800481b   Thumb Code     0  startup_stm32f4xx.o(.text)
    DMA1_Stream6_IRQHandler                  0x0800481b   Thumb Code     0  startup_stm32f4xx.o(.text)
    DMA1_Stream7_IRQHandler                  0x0800481b   Thumb Code     0  startup_stm32f4xx.o(.text)
    DMA2_Stream0_IRQHandler                  0x0800481b   Thumb Code     0  startup_stm32f4xx.o(.text)
    DMA2_Stream1_IRQHandler                  0x0800481b   Thumb Code     0  startup_stm32f4xx.o(.text)
    DMA2_Stream2_IRQHandler                  0x0800481b   Thumb Code     0  startup_stm32f4xx.o(.text)
    DMA2_Stream3_IRQHandler                  0x0800481b   Thumb Code     0  startup_stm32f4xx.o(.text)
    DMA2_Stream4_IRQHandler                  0x0800481b   Thumb Code     0  startup_stm32f4xx.o(.text)
    DMA2_Stream5_IRQHandler                  0x0800481b   Thumb Code     0  startup_stm32f4xx.o(.text)
    DMA2_Stream6_IRQHandler                  0x0800481b   Thumb Code     0  startup_stm32f4xx.o(.text)
    DMA2_Stream7_IRQHandler                  0x0800481b   Thumb Code     0  startup_stm32f4xx.o(.text)
    ETH_WKUP_IRQHandler                      0x0800481b   Thumb Code     0  startup_stm32f4xx.o(.text)
    EXTI0_IRQHandler                         0x0800481b   Thumb Code     0  startup_stm32f4xx.o(.text)
    EXTI1_IRQHandler                         0x0800481b   Thumb Code     0  startup_stm32f4xx.o(.text)
    EXTI2_IRQHandler                         0x0800481b   Thumb Code     0  startup_stm32f4xx.o(.text)
    EXTI3_IRQHandler                         0x0800481b   Thumb Code     0  startup_stm32f4xx.o(.text)
    EXTI4_IRQHandler                         0x0800481b   Thumb Code     0  startup_stm32f4xx.o(.text)
    EXTI9_5_IRQHandler                       0x0800481b   Thumb Code     0  startup_stm32f4xx.o(.text)
    FLASH_IRQHandler                         0x0800481b   Thumb Code     0  startup_stm32f4xx.o(.text)
    FPU_IRQHandler                           0x0800481b   Thumb Code     0  startup_stm32f4xx.o(.text)
    FSMC_IRQHandler                          0x0800481b   Thumb Code     0  startup_stm32f4xx.o(.text)
    HASH_RNG_IRQHandler                      0x0800481b   Thumb Code     0  startup_stm32f4xx.o(.text)
    I2C1_ER_IRQHandler                       0x0800481b   Thumb Code     0  startup_stm32f4xx.o(.text)
    I2C1_EV_IRQHandler                       0x0800481b   Thumb Code     0  startup_stm32f4xx.o(.text)
    I2C2_ER_IRQHandler                       0x0800481b   Thumb Code     0  startup_stm32f4xx.o(.text)
    I2C2_EV_IRQHandler                       0x0800481b   Thumb Code     0  startup_stm32f4xx.o(.text)
    I2C3_ER_IRQHandler                       0x0800481b   Thumb Code     0  startup_stm32f4xx.o(.text)
    I2C3_EV_IRQHandler                       0x0800481b   Thumb Code     0  startup_stm32f4xx.o(.text)
    OTG_FS_IRQHandler                        0x0800481b   Thumb Code     0  startup_stm32f4xx.o(.text)
    OTG_FS_WKUP_IRQHandler                   0x0800481b   Thumb Code     0  startup_stm32f4xx.o(.text)
    OTG_HS_EP1_IN_IRQHandler                 0x0800481b   Thumb Code     0  startup_stm32f4xx.o(.text)
    OTG_HS_EP1_OUT_IRQHandler                0x0800481b   Thumb Code     0  startup_stm32f4xx.o(.text)
    OTG_HS_IRQHandler                        0x0800481b   Thumb Code     0  startup_stm32f4xx.o(.text)
    OTG_HS_WKUP_IRQHandler                   0x0800481b   Thumb Code     0  startup_stm32f4xx.o(.text)
    PVD_IRQHandler                           0x0800481b   Thumb Code     0  startup_stm32f4xx.o(.text)
    RCC_IRQHandler                           0x0800481b   Thumb Code     0  startup_stm32f4xx.o(.text)
    RTC_Alarm_IRQHandler                     0x0800481b   Thumb Code     0  startup_stm32f4xx.o(.text)
    RTC_WKUP_IRQHandler                      0x0800481b   Thumb Code     0  startup_stm32f4xx.o(.text)
    SPI1_IRQHandler                          0x0800481b   Thumb Code     0  startup_stm32f4xx.o(.text)
    SPI2_IRQHandler                          0x0800481b   Thumb Code     0  startup_stm32f4xx.o(.text)
    SPI3_IRQHandler                          0x0800481b   Thumb Code     0  startup_stm32f4xx.o(.text)
    TAMP_STAMP_IRQHandler                    0x0800481b   Thumb Code     0  startup_stm32f4xx.o(.text)
    TIM1_BRK_TIM9_IRQHandler                 0x0800481b   Thumb Code     0  startup_stm32f4xx.o(.text)
    TIM1_CC_IRQHandler                       0x0800481b   Thumb Code     0  startup_stm32f4xx.o(.text)
    TIM1_TRG_COM_TIM11_IRQHandler            0x0800481b   Thumb Code     0  startup_stm32f4xx.o(.text)
    TIM1_UP_TIM10_IRQHandler                 0x0800481b   Thumb Code     0  startup_stm32f4xx.o(.text)
    TIM2_IRQHandler                          0x0800481b   Thumb Code     0  startup_stm32f4xx.o(.text)
    TIM3_IRQHandler                          0x0800481b   Thumb Code     0  startup_stm32f4xx.o(.text)
    TIM4_IRQHandler                          0x0800481b   Thumb Code     0  startup_stm32f4xx.o(.text)
    TIM5_IRQHandler                          0x0800481b   Thumb Code     0  startup_stm32f4xx.o(.text)
    TIM6_DAC_IRQHandler                      0x0800481b   Thumb Code     0  startup_stm32f4xx.o(.text)
    TIM7_IRQHandler                          0x0800481b   Thumb Code     0  startup_stm32f4xx.o(.text)
    TIM8_BRK_TIM12_IRQHandler                0x0800481b   Thumb Code     0  startup_stm32f4xx.o(.text)
    TIM8_CC_IRQHandler                       0x0800481b   Thumb Code     0  startup_stm32f4xx.o(.text)
    TIM8_TRG_COM_TIM14_IRQHandler            0x0800481b   Thumb Code     0  startup_stm32f4xx.o(.text)
    TIM8_UP_TIM13_IRQHandler                 0x0800481b   Thumb Code     0  startup_stm32f4xx.o(.text)
    UART4_IRQHandler                         0x0800481b   Thumb Code     0  startup_stm32f4xx.o(.text)
    UART5_IRQHandler                         0x0800481b   Thumb Code     0  startup_stm32f4xx.o(.text)
    USART2_IRQHandler                        0x0800481b   Thumb Code     0  startup_stm32f4xx.o(.text)
    USART3_IRQHandler                        0x0800481b   Thumb Code     0  startup_stm32f4xx.o(.text)
    USART6_IRQHandler                        0x0800481b   Thumb Code     0  startup_stm32f4xx.o(.text)
    WWDG_IRQHandler                          0x0800481b   Thumb Code     0  startup_stm32f4xx.o(.text)
    __user_initial_stackheap                 0x0800481d   Thumb Code     0  startup_stm32f4xx.o(.text)
    NVIC_Configuration                       0x08004841   Thumb Code    22  board.o(.text)
    SysTick_Handler                          0x08004857   Thumb Code    16  board.o(.text)
    rt_hw_tick_get_millisecond               0x08004867   Thumb Code    50  board.o(.text)
    rt_hw_tick_get_microsecond               0x08004899   Thumb Code    52  board.o(.text)
    fsmc_gpio_init                           0x080048cd   Thumb Code   538  board.o(.text)
    rt_hw_board_init                         0x08004b31   Thumb Code   104  board.o(.text)
    rt_platform_init                         0x08004bed   Thumb Code    32  platform.o(.text)
    USART1_IRQHandler                        0x08004db5   Thumb Code    64  usart.o(.text)
    rt_hw_usart_init                         0x08004e69   Thumb Code   102  usart.o(.text)
    NMI_Handler                              0x08004f45   Thumb Code     2  stm32f4xx_it.o(.text)
    MemManage_Handler                        0x08004f47   Thumb Code     4  stm32f4xx_it.o(.text)
    BusFault_Handler                         0x08004f4b   Thumb Code     4  stm32f4xx_it.o(.text)
    UsageFault_Handler                       0x08004f4f   Thumb Code     4  stm32f4xx_it.o(.text)
    SVC_Handler                              0x08004f53   Thumb Code     2  stm32f4xx_it.o(.text)
    DebugMon_Handler                         0x08004f55   Thumb Code     2  stm32f4xx_it.o(.text)
    key_handler                              0x08004f57   Thumb Code     2  stm32f4xx_it.o(.text)
    EXTI15_10_IRQHandler                     0x08004f59   Thumb Code    92  stm32f4xx_it.o(.text)
    SD_LowLevel_DeInit                       0x08004fb5   Thumb Code   140  stm32f4xx_sd.o(.text)
    SD_LowLevel_Init                         0x08005041   Thumb Code   184  stm32f4xx_sd.o(.text)
    SD_LowLevel_DMA_TxConfig                 0x080050f9   Thumb Code   126  stm32f4xx_sd.o(.text)
    SD_LowLevel_DMA_RxConfig                 0x08005177   Thumb Code   126  stm32f4xx_sd.o(.text)
    get_order                                0x080051f5   Thumb Code    18  stm32f4xx_sd.o(.text)
    SD_ProcessIRQSrc                         0x08005409   Thumb Code   138  stm32f4xx_sd.o(.text)
    stm32f4xx_SD_Detect                      0x08005547   Thumb Code    26  stm32f4xx_sd.o(.text)
    stm32f4xx_sdio_init                      0x08005561   Thumb Code   166  stm32f4xx_sd.o(.text)
    SDIO_IRQHandler                          0x08005607   Thumb Code    16  stm32f4xx_sd.o(.text)
    ETH_DeInit                               0x08005699   Thumb Code    22  stm32f4xx_eth.o(.text)
    ETH_Init                                 0x080056af   Thumb Code  1832  stm32f4xx_eth.o(.text)
    ETH_StructInit                           0x08005dd7   Thumb Code   178  stm32f4xx_eth.o(.text)
    ETH_DMAReceptionCmd                      0x08005e89   Thumb Code    54  stm32f4xx_eth.o(.text)
    ETH_DMATransmissionCmd                   0x08005ebf   Thumb Code    54  stm32f4xx_eth.o(.text)
    ETH_MACReceptionCmd                      0x08005ef5   Thumb Code    54  stm32f4xx_eth.o(.text)
    ETH_FlushTransmitFIFO                    0x08005f2b   Thumb Code    14  stm32f4xx_eth.o(.text)
    ETH_MACTransmissionCmd                   0x08005f39   Thumb Code    54  stm32f4xx_eth.o(.text)
    ETH_Start                                0x08005f6f   Thumb Code    32  stm32f4xx_eth.o(.text)
    ETH_HandleTxPkt                          0x08005f8f   Thumb Code   238  stm32f4xx_eth.o(.text)
    ETH_HandleRxPkt                          0x0800607d   Thumb Code   196  stm32f4xx_eth.o(.text)
    ETH_GetDMARxDescFrameLength              0x08006141   Thumb Code    10  stm32f4xx_eth.o(.text)
    ETH_GetRxPktSize                         0x0800614b   Thumb Code    66  stm32f4xx_eth.o(.text)
    ETH_DropRxPkt                            0x0800618d   Thumb Code    78  stm32f4xx_eth.o(.text)
    ETH_EnhancedDescriptorCmd                0x080061db   Thumb Code    54  stm32f4xx_eth.o(.text)
    ETH_ReadPHYRegister                      0x08006211   Thumb Code   134  stm32f4xx_eth.o(.text)
    ETH_WritePHYRegister                     0x08006297   Thumb Code   134  stm32f4xx_eth.o(.text)
    ETH_PHYLoopBackCmd                       0x0800631d   Thumb Code    90  stm32f4xx_eth.o(.text)
    ETH_GetFlowControlBusyStatus             0x08006377   Thumb Code    20  stm32f4xx_eth.o(.text)
    ETH_InitiatePauseControlFrame            0x0800638b   Thumb Code    14  stm32f4xx_eth.o(.text)
    ETH_BackPressureActivationCmd            0x08006399   Thumb Code    54  stm32f4xx_eth.o(.text)
    ETH_GetMACFlagStatus                     0x080063cf   Thumb Code    80  stm32f4xx_eth.o(.text)
    ETH_GetMACITStatus                       0x0800641f   Thumb Code    60  stm32f4xx_eth.o(.text)
    ETH_MACITConfig                          0x0800645b   Thumb Code    74  stm32f4xx_eth.o(.text)
    ETH_MACAddressConfig                     0x080064a5   Thumb Code    78  stm32f4xx_eth.o(.text)
    ETH_GetMACAddress                        0x080064f3   Thumb Code    68  stm32f4xx_eth.o(.text)
    ETH_MACAddressPerfectFilterCmd           0x08006537   Thumb Code    90  stm32f4xx_eth.o(.text)
    ETH_MACAddressFilterConfig               0x08006591   Thumb Code    92  stm32f4xx_eth.o(.text)
    ETH_MACAddressMaskBytesFilterConfig      0x080065ed   Thumb Code   114  stm32f4xx_eth.o(.text)
    ETH_DMATxDescChainInit                   0x0800665f   Thumb Code    70  stm32f4xx_eth.o(.text)
    ETH_DMATxDescRingInit                    0x080066a5   Thumb Code    72  stm32f4xx_eth.o(.text)
    ETH_GetDMATxDescFlagStatus               0x080066ed   Thumb Code   172  stm32f4xx_eth.o(.text)
    ETH_GetDMATxDescCollisionCount           0x08006799   Thumb Code    10  stm32f4xx_eth.o(.text)
    ETH_SetDMATxDescOwnBit                   0x080067a3   Thumb Code    10  stm32f4xx_eth.o(.text)
    ETH_DMATxDescTransmitITConfig            0x080067ad   Thumb Code    48  stm32f4xx_eth.o(.text)
    ETH_DMATxDescFrameSegmentConfig          0x080067dd   Thumb Code    40  stm32f4xx_eth.o(.text)
    ETH_DMATxDescChecksumInsertionConfig     0x08006805   Thumb Code    60  stm32f4xx_eth.o(.text)
    ETH_DMATxDescCRCCmd                      0x08006841   Thumb Code    48  stm32f4xx_eth.o(.text)
    ETH_DMATxDescEndOfRingCmd                0x08006871   Thumb Code    48  stm32f4xx_eth.o(.text)
    ETH_DMATxDescSecondAddressChainedCmd     0x080068a1   Thumb Code    48  stm32f4xx_eth.o(.text)
    ETH_DMATxDescShortFramePaddingCmd        0x080068d1   Thumb Code    48  stm32f4xx_eth.o(.text)
    ETH_DMATxDescTimeStampCmd                0x08006901   Thumb Code    48  stm32f4xx_eth.o(.text)
    ETH_DMATxDescBufferSizeConfig            0x08006931   Thumb Code    60  stm32f4xx_eth.o(.text)
    ETH_DMARxDescChainInit                   0x0800696d   Thumb Code    76  stm32f4xx_eth.o(.text)
    ETH_DMARxDescRingInit                    0x080069b9   Thumb Code    86  stm32f4xx_eth.o(.text)
    ETH_GetDMARxDescFlagStatus               0x08006a0f   Thumb Code   130  stm32f4xx_eth.o(.text)
    ETH_GetDMAPTPRxDescExtendedFlagStatus    0x08006a91   Thumb Code    78  stm32f4xx_eth.o(.text)
    ETH_SetDMARxDescOwnBit                   0x08006adf   Thumb Code    10  stm32f4xx_eth.o(.text)
    ETH_DMARxDescReceiveITConfig             0x08006ae9   Thumb Code    46  stm32f4xx_eth.o(.text)
    ETH_DMARxDescEndOfRingCmd                0x08006b17   Thumb Code    46  stm32f4xx_eth.o(.text)
    ETH_DMARxDescSecondAddressChainedCmd     0x08006b45   Thumb Code    46  stm32f4xx_eth.o(.text)
    ETH_GetDMARxDescBufferSize               0x08006b73   Thumb Code    42  stm32f4xx_eth.o(.text)
    ETH_SoftwareReset                        0x08006b9d   Thumb Code    14  stm32f4xx_eth.o(.text)
    ETH_GetSoftwareResetStatus               0x08006bab   Thumb Code    20  stm32f4xx_eth.o(.text)
    ETH_GetDMAFlagStatus                     0x08006bbf   Thumb Code   128  stm32f4xx_eth.o(.text)
    ETH_DMAClearFlag                         0x08006c3f   Thumb Code    30  stm32f4xx_eth.o(.text)
    ETH_GetDMAITStatus                       0x08006c5d   Thumb Code   128  stm32f4xx_eth.o(.text)
    ETH_DMAClearITPendingBit                 0x08006cdd   Thumb Code    30  stm32f4xx_eth.o(.text)
    ETH_GetTransmitProcessState              0x08006cfb   Thumb Code    10  stm32f4xx_eth.o(.text)
    ETH_GetReceiveProcessState               0x08006d05   Thumb Code    10  stm32f4xx_eth.o(.text)
    ETH_GetFlushTransmitFIFOStatus           0x08006d0f   Thumb Code    20  stm32f4xx_eth.o(.text)
    ETH_DMAITConfig                          0x08006d23   Thumb Code    86  stm32f4xx_eth.o(.text)
    ETH_GetDMAOverflowStatus                 0x08006d79   Thumb Code    48  stm32f4xx_eth.o(.text)
    ETH_GetRxOverflowMissedFrameCounter      0x08006da9   Thumb Code    10  stm32f4xx_eth.o(.text)
    ETH_GetBufferUnavailableMissedFrameCounter 0x08006db3   Thumb Code     8  stm32f4xx_eth.o(.text)
    ETH_GetCurrentTxDescStartAddress         0x08006dbb   Thumb Code     6  stm32f4xx_eth.o(.text)
    ETH_GetCurrentRxDescStartAddress         0x08006dc1   Thumb Code     6  stm32f4xx_eth.o(.text)
    ETH_GetCurrentTxBufferAddress            0x08006dc7   Thumb Code     6  stm32f4xx_eth.o(.text)
    ETH_GetCurrentRxBufferAddress            0x08006dcd   Thumb Code     6  stm32f4xx_eth.o(.text)
    ETH_ResumeDMATransmission                0x08006dd3   Thumb Code     8  stm32f4xx_eth.o(.text)
    ETH_ResumeDMAReception                   0x08006ddb   Thumb Code     8  stm32f4xx_eth.o(.text)
    ETH_SetReceiveWatchdogTimer              0x08006de3   Thumb Code     6  stm32f4xx_eth.o(.text)
    ETH_ResetWakeUpFrameFilterRegisterPointer 0x08006de9   Thumb Code    14  stm32f4xx_eth.o(.text)
    ETH_SetWakeUpFrameFilterRegister         0x08006df7   Thumb Code    24  stm32f4xx_eth.o(.text)
    ETH_GlobalUnicastWakeUpCmd               0x08006e0f   Thumb Code    52  stm32f4xx_eth.o(.text)
    ETH_GetPMTFlagStatus                     0x08006e43   Thumb Code    44  stm32f4xx_eth.o(.text)
    ETH_WakeUpFrameDetectionCmd              0x08006e6f   Thumb Code    52  stm32f4xx_eth.o(.text)
    ETH_MagicPacketDetectionCmd              0x08006ea3   Thumb Code    52  stm32f4xx_eth.o(.text)
    ETH_PowerDownCmd                         0x08006ed7   Thumb Code    52  stm32f4xx_eth.o(.text)
    ETH_MMCCounterFullPreset                 0x08006f0b   Thumb Code    16  stm32f4xx_eth.o(.text)
    ETH_MMCCounterHalfPreset                 0x08006f1b   Thumb Code    30  stm32f4xx_eth.o(.text)
    ETH_MMCCounterFreezeCmd                  0x08006f39   Thumb Code    56  stm32f4xx_eth.o(.text)
    ETH_MMCResetOnReadCmd                    0x08006f71   Thumb Code    56  stm32f4xx_eth.o(.text)
    ETH_MMCCounterRolloverCmd                0x08006fa9   Thumb Code    56  stm32f4xx_eth.o(.text)
    ETH_MMCCountersReset                     0x08006fe1   Thumb Code    16  stm32f4xx_eth.o(.text)
    ETH_MMCITConfig                          0x08006ff1   Thumb Code   128  stm32f4xx_eth.o(.text)
    ETH_GetMMCITStatus                       0x08007071   Thumb Code   110  stm32f4xx_eth.o(.text)
    ETH_GetMMCRegister                       0x080070df   Thumb Code    88  stm32f4xx_eth.o(.text)
    ETH_PTPNodeClockTypeConfig               0x08007137   Thumb Code    98  stm32f4xx_eth.o(.text)
    ETH_PTPSnapshotCmd                       0x08007199   Thumb Code    98  stm32f4xx_eth.o(.text)
    ETH_PTPPacketSnoopingV2FormatCmd         0x080071fb   Thumb Code    52  stm32f4xx_eth.o(.text)
    ETH_PTPSubSecondRolloverCmd              0x0800722f   Thumb Code    52  stm32f4xx_eth.o(.text)
    ETH_EnablePTPTimeStampAddend             0x08007263   Thumb Code    14  stm32f4xx_eth.o(.text)
    ETH_EnablePTPTimeStampInterruptTrigger   0x08007271   Thumb Code    14  stm32f4xx_eth.o(.text)
    ETH_EnablePTPTimeStampUpdate             0x0800727f   Thumb Code    14  stm32f4xx_eth.o(.text)
    ETH_InitializePTPTimeStamp               0x0800728d   Thumb Code    14  stm32f4xx_eth.o(.text)
    ETH_PTPUpdateMethodConfig                0x0800729b   Thumb Code    52  stm32f4xx_eth.o(.text)
    ETH_PTPTimeStampCmd                      0x080072cf   Thumb Code    52  stm32f4xx_eth.o(.text)
    ETH_GetPTPFlagStatus                     0x08007303   Thumb Code    94  stm32f4xx_eth.o(.text)
    ETH_SetPTPSubSecondIncrement             0x08007361   Thumb Code    28  stm32f4xx_eth.o(.text)
    ETH_SetPTPTimeStampUpdate                0x0800737d   Thumb Code    64  stm32f4xx_eth.o(.text)
    ETH_SetPTPTimeStampAddend                0x080073bd   Thumb Code     8  stm32f4xx_eth.o(.text)
    ETH_SetPTPTargetTime                     0x080073c5   Thumb Code    12  stm32f4xx_eth.o(.text)
    ETH_GetPTPRegister                       0x080073d1   Thumb Code    78  stm32f4xx_eth.o(.text)
    ETH_DMAPTPTxDescChainInit                0x0800741f   Thumb Code    70  stm32f4xx_eth.o(.text)
    ETH_DMAPTPRxDescChainInit                0x08007465   Thumb Code    76  stm32f4xx_eth.o(.text)
    ETH_HandlePTPTxPkt                       0x080074b1   Thumb Code   282  stm32f4xx_eth.o(.text)
    ETH_HandlePTPRxPkt                       0x080075cb   Thumb Code   212  stm32f4xx_eth.o(.text)
    ETH_IRQHandler                           0x0800769f   Thumb Code   202  stm32f4xx_eth.o(.text)
    rt_stm32_eth_tx                          0x08007889   Thumb Code   316  stm32f4xx_eth.o(.text)
    rt_stm32_eth_rx                          0x080079c5   Thumb Code   224  stm32f4xx_eth.o(.text)
    rt_hw_stm32_eth_init                     0x08007beb   Thumb Code   238  stm32f4xx_eth.o(.text)
    dp83483                                  0x08007cd9   Thumb Code   108  stm32f4xx_eth.o(.text)
    rt_init_thread_entry                     0x08007dfd   Thumb Code    50  application.o(.text)
    rt_application_init                      0x08007e2f   Thumb Code    38  application.o(.text)
    assert_failed                            0x08007ea9   Thumb Code    30  startup.o(.text)
    rtthread_startup                         0x08007ec7   Thumb Code    66  startup.o(.text)
    main                                     0x08007f09   Thumb Code    14  startup.o(.text)
    tcpclient                                0x08007f79   Thumb Code   248  tcpclient.o(.text)
    tcpserv                                  0x080080d1   Thumb Code   336  tcpserver.o(.text)
    rt_system_tick_init                      0x080082ed   Thumb Code     2  clock.o(.text)
    rt_tick_get                              0x080082ef   Thumb Code     6  clock.o(.text)
    rt_tick_set                              0x080082f5   Thumb Code    22  clock.o(.text)
    rt_tick_increase                         0x0800830b   Thumb Code    42  clock.o(.text)
    rt_tick_from_millisecond                 0x08008335   Thumb Code    22  clock.o(.text)
    rt_device_find                           0x08008351   Thumb Code    76  device.o(.text)
    rt_device_register                       0x0800839d   Thumb Code    50  device.o(.text)
    rt_device_unregister                     0x080083cf   Thumb Code    44  device.o(.text)
    rt_device_init_all                       0x080083fb   Thumb Code    74  device.o(.text)
    rt_device_init                           0x08008445   Thumb Code    82  device.o(.text)
    rt_device_open                           0x08008497   Thumb Code   172  device.o(.text)
    rt_device_close                          0x08008543   Thumb Code    88  device.o(.text)
    rt_device_read                           0x0800859b   Thumb Code    90  device.o(.text)
    rt_device_write                          0x080085f5   Thumb Code    90  device.o(.text)
    rt_device_control                        0x0800864f   Thumb Code    60  device.o(.text)
    rt_device_set_rx_indicate                0x0800868b   Thumb Code    44  device.o(.text)
    rt_device_set_tx_complete                0x080086b7   Thumb Code    44  device.o(.text)
    rt_thread_idle_sethook                   0x08008789   Thumb Code     6  idle.o(.text)
    rt_thread_idle_excute                    0x0800878f   Thumb Code   176  idle.o(.text)
    rt_thread_idle_init                      0x08008853   Thumb Code    38  idle.o(.text)
    rt_sem_init                              0x0800899d   Thumb Code    64  ipc.o(.text)
    rt_sem_detach                            0x080089dd   Thumb Code    52  ipc.o(.text)
    rt_sem_create                            0x08008a11   Thumb Code   102  ipc.o(.text)
    rt_sem_delete                            0x08008a77   Thumb Code   114  ipc.o(.text)
    rt_sem_take                              0x08008ae9   Thumb Code   324  ipc.o(.text)
    rt_sem_trytake                           0x08008c2d   Thumb Code    14  ipc.o(.text)
    rt_sem_release                           0x08008c3b   Thumb Code    80  ipc.o(.text)
    rt_sem_control                           0x08008c8b   Thumb Code    86  ipc.o(.text)
    rt_mutex_init                            0x08008ce1   Thumb Code    76  ipc.o(.text)
    rt_mutex_detach                          0x08008d2d   Thumb Code    54  ipc.o(.text)
    rt_mutex_create                          0x08008d63   Thumb Code   328  ipc.o(.text)
    rt_mutex_delete                          0x08008eab   Thumb Code   124  ipc.o(.text)
    rt_mutex_take                            0x08008f27   Thumb Code   408  ipc.o(.text)
    rt_mutex_release                         0x080090bf   Thumb Code   314  ipc.o(.text)
    rt_mutex_control                         0x080091f9   Thumb Code     8  ipc.o(.text)
    rt_event_init                            0x08009201   Thumb Code    66  ipc.o(.text)
    rt_event_detach                          0x08009243   Thumb Code    56  ipc.o(.text)
    rt_event_create                          0x0800927b   Thumb Code   164  ipc.o(.text)
    rt_event_delete                          0x0800931f   Thumb Code   124  ipc.o(.text)
    rt_event_send                            0x0800939b   Thumb Code   232  ipc.o(.text)
    rt_event_recv                            0x08009483   Thumb Code   450  ipc.o(.text)
    rt_event_control                         0x08009645   Thumb Code    86  ipc.o(.text)
    rt_mb_init                               0x0800969b   Thumb Code    96  ipc.o(.text)
    rt_mb_detach                             0x080096fb   Thumb Code   120  ipc.o(.text)
    rt_mb_create                             0x08009773   Thumb Code   148  ipc.o(.text)
    rt_mb_delete                             0x08009807   Thumb Code   138  ipc.o(.text)
    rt_mb_send_wait                          0x08009891   Thumb Code   444  ipc.o(.text)
    rt_mb_send                               0x08009a4d   Thumb Code    18  ipc.o(.text)
    rt_mb_recv                               0x08009a5f   Thumb Code   506  ipc.o(.text)
    rt_mb_control                            0x08009c59   Thumb Code    98  ipc.o(.text)
    rt_mq_init                               0x08009cbb   Thumb Code   138  ipc.o(.text)
    rt_mq_detach                             0x08009d45   Thumb Code    56  ipc.o(.text)
    rt_mq_delete                             0x08009d7d   Thumb Code   126  ipc.o(.text)
    rt_mq_create                             0x08009dfb   Thumb Code   190  ipc.o(.text)
    rt_mq_send                               0x08009eb9   Thumb Code   254  ipc.o(.text)
    rt_mq_urgent                             0x08009fb7   Thumb Code   342  ipc.o(.text)
    rt_mq_recv                               0x0800a10d   Thumb Code   530  ipc.o(.text)
    rt_mq_control                            0x0800a31f   Thumb Code   116  ipc.o(.text)
    rt_interrupt_enter                       0x0800a3e9   Thumb Code    30  irq.o(.text)
    rt_interrupt_leave                       0x0800a407   Thumb Code    30  irq.o(.text)
    rt_interrupt_get_nest                    0x0800a425   Thumb Code     6  irq.o(.text)
    rt_get_errno                             0x0800a431   Thumb Code    32  kservice.o(.text)
    rt_set_errno                             0x0800a451   Thumb Code    36  kservice.o(.text)
    _rt_errno                                0x0800a475   Thumb Code    30  kservice.o(.text)
    rt_memset                                0x0800a493   Thumb Code    72  kservice.o(.text)
    rt_memcpy                                0x0800a4db   Thumb Code   120  kservice.o(.text)
    rt_memmove                               0x0800a553   Thumb Code    66  kservice.o(.text)
    rt_memcmp                                0x0800a595   Thumb Code    38  kservice.o(.text)
    rt_strlen                                0x0800a5bb   Thumb Code    18  kservice.o(.text)
    rt_strstr                                0x0800a5cd   Thumb Code    58  kservice.o(.text)
    rt_strcasecmp                            0x0800a607   Thumb Code    48  kservice.o(.text)
    rt_strncpy                               0x0800a637   Thumb Code    52  kservice.o(.text)
    rt_strncmp                               0x0800a66b   Thumb Code    40  kservice.o(.text)
    rt_strcmp                                0x0800a693   Thumb Code    28  kservice.o(.text)
    rt_strdup                                0x0800a6af   Thumb Code    40  kservice.o(.text)
    rt_hw_console_output                     0x0800a6d7   Thumb Code     2  kservice.o(.text)
    rt_vsnprintf                             0x0800a871   Thumb Code   800  kservice.o(.text)
    rt_kprintf                               0x0800ab91   Thumb Code    96  kservice.o(.text)
    rt_show_version                          0x0800abf1   Thumb Code    38  kservice.o(.text)
    rt_snprintf                              0x0800ac17   Thumb Code    38  kservice.o(.text)
    rt_vsprintf                              0x0800ac3d   Thumb Code    22  kservice.o(.text)
    rt_sprintf                               0x0800ac53   Thumb Code    34  kservice.o(.text)
    rt_console_get_device                    0x0800ac75   Thumb Code     6  kservice.o(.text)
    rt_console_set_device                    0x0800ac7b   Thumb Code    48  kservice.o(.text)
    rt_malloc_align                          0x0800acab   Thumb Code    66  kservice.o(.text)
    rt_free_align                            0x0800aced   Thumb Code    16  kservice.o(.text)
    __rt_ffs                                 0x0800acfd   Thumb Code    72  kservice.o(.text)
    rt_malloc_sethook                        0x0800ade1   Thumb Code     6  mem.o(.text)
    rt_free_sethook                          0x0800ade7   Thumb Code     6  mem.o(.text)
    rt_system_heap_init                      0x0800aec3   Thumb Code   222  mem.o(.text)
    rt_malloc                                0x0800afa1   Thumb Code   936  mem.o(.text)
    rt_free                                  0x0800b349   Thumb Code   346  mem.o(.text)
    rt_realloc                               0x0800b4a3   Thumb Code   330  mem.o(.text)
    rt_calloc                                0x0800b5ed   Thumb Code    98  mem.o(.text)
    rt_memory_info                           0x0800b64f   Thumb Code    26  mem.o(.text)
    list_mem                                 0x0800b669   Thumb Code    34  mem.o(.text)
    rt_object_attach_sethook                 0x0800b7b1   Thumb Code     6  object.o(.text)
    rt_object_detach_sethook                 0x0800b7b7   Thumb Code     6  object.o(.text)
    rt_object_trytake_sethook                0x0800b7bd   Thumb Code     6  object.o(.text)
    rt_object_take_sethook                   0x0800b7c3   Thumb Code     6  object.o(.text)
    rt_object_put_sethook                    0x0800b7c9   Thumb Code     6  object.o(.text)
    rt_system_object_init                    0x0800b7cf   Thumb Code     2  object.o(.text)
    rt_object_get_information                0x0800b7d1   Thumb Code    10  object.o(.text)
    rt_object_init                           0x0800b7db   Thumb Code    76  object.o(.text)
    rt_object_detach                         0x0800b827   Thumb Code    74  object.o(.text)
    rt_object_allocate                       0x0800b871   Thumb Code   150  object.o(.text)
    rt_object_delete                         0x0800b907   Thumb Code   120  object.o(.text)
    rt_object_is_systemobject                0x0800b97f   Thumb Code    52  object.o(.text)
    rt_object_find                           0x0800b9b3   Thumb Code   110  object.o(.text)
    rt_scheduler_sethook                     0x0800bad9   Thumb Code     6  scheduler.o(.text)
    rt_system_scheduler_init                 0x0800bb43   Thumb Code    56  scheduler.o(.text)
    rt_system_scheduler_start                0x0800bb7b   Thumb Code    36  scheduler.o(.text)
    rt_schedule                              0x0800bb9f   Thumb Code   134  scheduler.o(.text)
    rt_schedule_insert_thread                0x0800bc25   Thumb Code   100  scheduler.o(.text)
    rt_schedule_remove_thread                0x0800bc89   Thumb Code   112  scheduler.o(.text)
    rt_enter_critical                        0x0800bcf9   Thumb Code    28  scheduler.o(.text)
    rt_exit_critical                         0x0800bd15   Thumb Code    54  scheduler.o(.text)
    rt_critical_level                        0x0800bd4b   Thumb Code     8  scheduler.o(.text)
    rt_thread_timeout                        0x0800be79   Thumb Code   102  thread.o(.text)
    rt_thread_init                           0x0800bf83   Thumb Code   110  thread.o(.text)
    rt_thread_self                           0x0800bff1   Thumb Code     6  thread.o(.text)
    rt_thread_resume                         0x0800bff7   Thumb Code    96  thread.o(.text)
    rt_thread_startup                        0x0800c057   Thumb Code   116  thread.o(.text)
    rt_thread_detach                         0x0800c0cb   Thumb Code    90  thread.o(.text)
    rt_thread_create                         0x0800c125   Thumb Code    80  thread.o(.text)
    rt_thread_delete                         0x0800c175   Thumb Code    82  thread.o(.text)
    rt_thread_yield                          0x0800c1c7   Thumb Code   316  thread.o(.text)
    rt_thread_suspend                        0x0800c303   Thumb Code    98  thread.o(.text)
    rt_thread_sleep                          0x0800c365   Thumb Code    98  thread.o(.text)
    rt_thread_delay                          0x0800c3c7   Thumb Code    12  thread.o(.text)
    rt_thread_control                        0x0800c3d3   Thumb Code   146  thread.o(.text)
    rt_thread_find                           0x0800c465   Thumb Code    76  thread.o(.text)
    rt_timer_timeout_sethook                 0x0800c4d3   Thumb Code     6  timer.o(.text)
    rt_timer_dump                            0x0800c589   Thumb Code    46  timer.o(.text)
    rt_timer_init                            0x0800c5b7   Thumb Code    76  timer.o(.text)
    rt_timer_detach                          0x0800c603   Thumb Code    62  timer.o(.text)
    rt_timer_create                          0x0800c641   Thumb Code    54  timer.o(.text)
    rt_timer_delete                          0x0800c677   Thumb Code    64  timer.o(.text)
    rt_timer_start                           0x0800c6b7   Thumb Code   330  timer.o(.text)
    rt_timer_stop                            0x0800c801   Thumb Code    98  timer.o(.text)
    rt_timer_control                         0x0800c863   Thumb Code   234  timer.o(.text)
    rt_timer_check                           0x0800c94d   Thumb Code   148  timer.o(.text)
    rt_timer_next_timeout_tick               0x0800c9e1   Thumb Code    10  timer.o(.text)
    rt_system_timer_init                     0x0800c9eb   Thumb Code    24  timer.o(.text)
    rt_system_timer_thread_init              0x0800ca03   Thumb Code     2  timer.o(.text)
    rt_hw_stack_init                         0x0800ca25   Thumb Code    74  cpuport.o(.text)
    rt_hw_exception_install                  0x0800ca6f   Thumb Code     6  cpuport.o(.text)
    rt_hw_hard_fault_exception               0x0800ca75   Thumb Code   112  cpuport.o(.text)
    rt_hw_cpu_shutdown                       0x0800cae5   Thumb Code    36  cpuport.o(.text)
    rt_hw_interrupt_disable                  0x0800cbe5   Thumb Code     8  context_rvds.o(.text)
    rt_hw_interrupt_enable                   0x0800cbed   Thumb Code     6  context_rvds.o(.text)
    rt_hw_context_switch                     0x0800cbf3   Thumb Code    32  context_rvds.o(.text)
    rt_hw_context_switch_interrupt           0x0800cbf3   Thumb Code     0  context_rvds.o(.text)
    PendSV_Handler                           0x0800cc13   Thumb Code   108  context_rvds.o(.text)
    rt_hw_context_switch_to                  0x0800cc7f   Thumb Code    70  context_rvds.o(.text)
    rt_hw_interrupt_thread_switch            0x0800ccc5   Thumb Code     4  context_rvds.o(.text)
    HardFault_Handler                        0x0800ccc9   Thumb Code    20  context_rvds.o(.text)
    rt_mmcsd_blk_probe                       0x0800d089   Thumb Code   660  block_dev.o(.text)
    rt_mmcsd_blk_remove                      0x0800d31d   Thumb Code    62  block_dev.o(.text)
    rt_mmcsd_blk_init                        0x0800d35b   Thumb Code    10  block_dev.o(.text)
    mmcsd_host_lock                          0x0800d3c7   Thumb Code    18  mmcsd_core.o(.text)
    mmcsd_host_unlock                        0x0800d3d9   Thumb Code    14  mmcsd_core.o(.text)
    mmcsd_req_complete                       0x0800d3e7   Thumb Code    14  mmcsd_core.o(.text)
    mmcsd_send_request                       0x0800d3f5   Thumb Code    80  mmcsd_core.o(.text)
    mmcsd_send_cmd                           0x0800d445   Thumb Code    48  mmcsd_core.o(.text)
    mmcsd_set_chip_select                    0x0800d475   Thumb Code    16  mmcsd_core.o(.text)
    mmcsd_go_idle                            0x0800d485   Thumb Code    98  mmcsd_core.o(.text)
    mmcsd_spi_read_ocr                       0x0800d4e7   Thumb Code    62  mmcsd_core.o(.text)
    mmcsd_all_get_cid                        0x0800d525   Thumb Code    64  mmcsd_core.o(.text)
    mmcsd_get_cid                            0x0800d565   Thumb Code   246  mmcsd_core.o(.text)
    mmcsd_get_csd                            0x0800d65b   Thumb Code   238  mmcsd_core.o(.text)
    mmcsd_select_card                        0x0800d78b   Thumb Code    14  mmcsd_core.o(.text)
    mmcsd_deselect_cards                     0x0800d799   Thumb Code    14  mmcsd_core.o(.text)
    mmcsd_spi_use_crc                        0x0800d7a7   Thumb Code    50  mmcsd_core.o(.text)
    mmcsd_set_clock                          0x0800d7d9   Thumb Code    28  mmcsd_core.o(.text)
    mmcsd_set_bus_mode                       0x0800d7f5   Thumb Code    16  mmcsd_core.o(.text)
    mmcsd_set_bus_width                      0x0800d805   Thumb Code    16  mmcsd_core.o(.text)
    mmcsd_set_data_timeout                   0x0800d815   Thumb Code   194  mmcsd_core.o(.text)
    mmcsd_select_voltage                     0x0800d8d7   Thumb Code    50  mmcsd_core.o(.text)
    mmcsd_change                             0x0800d989   Thumb Code    14  mmcsd_core.o(.text)
    mmcsd_detect                             0x0800d997   Thumb Code   242  mmcsd_core.o(.text)
    mmcsd_alloc_host                         0x0800da89   Thumb Code    82  mmcsd_core.o(.text)
    mmcsd_free_host                          0x0800dadb   Thumb Code    28  mmcsd_core.o(.text)
    rt_mmcsd_core_init                       0x0800daf7   Thumb Code   100  mmcsd_core.o(.text)
    mmcsd_send_app_cmd                       0x0800e08d   Thumb Code   144  sd.o(.text)
    mmcsd_app_set_bus_width                  0x0800e11d   Thumb Code    80  sd.o(.text)
    mmcsd_send_app_op_cond                   0x0800e16d   Thumb Code   340  sd.o(.text)
    mmcsd_send_if_cond                       0x0800e2c1   Thumb Code    92  sd.o(.text)
    mmcsd_get_card_addr                      0x0800e31d   Thumb Code    60  sd.o(.text)
    mmcsd_get_scr                            0x0800e359   Thumb Code   190  sd.o(.text)
    init_sd                                  0x0800e591   Thumb Code   152  sd.o(.text)
    sdio_io_send_op_cond                     0x0800e66b   Thumb Code   196  sdio.o(.text)
    sdio_io_rw_direct                        0x0800e72f   Thumb Code   288  sdio.o(.text)
    sdio_io_rw_extended                      0x0800e84f   Thumb Code   446  sdio.o(.text)
    sdio_io_readb                            0x0800ebf3   Thumb Code    40  sdio.o(.text)
    sdio_io_writeb                           0x0800ec1b   Thumb Code    32  sdio.o(.text)
    sdio_io_readw                            0x0800ec3b   Thumb Code    48  sdio.o(.text)
    sdio_io_writew                           0x0800ec6b   Thumb Code    32  sdio.o(.text)
    sdio_io_readl                            0x0800ec8b   Thumb Code    46  sdio.o(.text)
    sdio_io_writel                           0x0800ecb9   Thumb Code    32  sdio.o(.text)
    sdio_io_read_multi_fifo_b                0x0800ecd9   Thumb Code    32  sdio.o(.text)
    sdio_io_write_multi_fifo_b               0x0800ecf9   Thumb Code    32  sdio.o(.text)
    sdio_io_read_multi_incr_b                0x0800ed19   Thumb Code    32  sdio.o(.text)
    sdio_io_write_multi_incr_b               0x0800ed39   Thumb Code    32  sdio.o(.text)
    sdio_free_cis                            0x0800f0c7   Thumb Code    46  sdio.o(.text)
    init_sdio                                0x0800f5e1   Thumb Code   386  sdio.o(.text)
    sdio_attach_irq                          0x0800f905   Thumb Code   170  sdio.o(.text)
    sdio_detach_irq                          0x0800f9af   Thumb Code   152  sdio.o(.text)
    sdio_irq_wakeup                          0x0800fa47   Thumb Code    22  sdio.o(.text)
    sdio_enable_func                         0x0800fa5d   Thumb Code   204  sdio.o(.text)
    sdio_disable_func                        0x0800fb29   Thumb Code   300  sdio.o(.text)
    sdio_set_block_size                      0x0800fc55   Thumb Code   130  sdio.o(.text)
    sdio_register_driver                     0x0800fd03   Thumb Code    62  sdio.o(.text)
    sdio_unregister_driver                   0x0800fd41   Thumb Code   112  sdio.o(.text)
    rt_sdio_init                             0x0800fdb1   Thumb Code    16  sdio.o(.text)
    rt_hw_serial_register                    0x080101df   Thumb Code   244  serial.o(.text)
    rt_hw_serial_isr                         0x080102d3   Thumb Code   186  serial.o(.text)
    rt_hw_serial_dma_tx_isr                  0x0801038d   Thumb Code    64  serial.o(.text)
    rt_data_queue_init                       0x0801041b   Thumb Code    92  dataqueue.o(.text)
    rt_data_queue_push                       0x08010477   Thumb Code   314  dataqueue.o(.text)
    rt_data_queue_pop                        0x080105b1   Thumb Code   414  dataqueue.o(.text)
    rt_data_queue_peak                       0x0801074f   Thumb Code   112  dataqueue.o(.text)
    rt_data_queue_reset                      0x080107bf   Thumb Code   252  dataqueue.o(.text)
    finsh_set_device                         0x08010905   Thumb Code   134  shell.o(.text)
    finsh_get_device                         0x0801098b   Thumb Code    46  shell.o(.text)
    finsh_set_echo                           0x080109b9   Thumb Code    48  shell.o(.text)
    finsh_get_echo                           0x080109e9   Thumb Code    50  shell.o(.text)
    finsh_run_line                           0x08010a37   Thumb Code   150  shell.o(.text)
    finsh_thread_entry                       0x08010b89   Thumb Code  1624  shell.o(.text)
    finsh_system_function_init               0x080111e1   Thumb Code    10  shell.o(.text)
    finsh_system_var_init                    0x080111eb   Thumb Code    10  shell.o(.text)
    finsh_system_init                        0x080111f5   Thumb Code   122  shell.o(.text)
    hello                                    0x080112d9   Thumb Code    12  cmd.o(.text)
    version                                  0x080112e5   Thumb Code    10  cmd.o(.text)
    list_thread                              0x0801139d   Thumb Code    10  cmd.o(.text)
    list_sem                                 0x0801143b   Thumb Code    12  cmd.o(.text)
    list_event                               0x080114a7   Thumb Code    12  cmd.o(.text)
    list_mutex                               0x080114f5   Thumb Code    12  cmd.o(.text)
    list_mailbox                             0x08011579   Thumb Code    12  cmd.o(.text)
    list_msgqueue                            0x080115f1   Thumb Code    12  cmd.o(.text)
    list_mempool                             0x08011663   Thumb Code    12  cmd.o(.text)
    list_timer                               0x08011aa1   Thumb Code    10  cmd.o(.text)
    list_device                              0x08011af9   Thumb Code    12  cmd.o(.text)
    list                                     0x08011b05   Thumb Code   126  cmd.o(.text)
    list_prefix                              0x08011bc5   Thumb Code   434  cmd.o(.text)
    finsh_compiler_run                       0x08013603   Thumb Code    88  finsh_compiler.o(.text)
    finsh_error_init                         0x0801366d   Thumb Code     8  finsh_error.o(.text)
    finsh_error_set                          0x08013675   Thumb Code    10  finsh_error.o(.text)
    finsh_errno                              0x0801367f   Thumb Code     6  finsh_error.o(.text)
    finsh_error_string                       0x08013685   Thumb Code    10  finsh_error.o(.text)
    finsh_heap_init                          0x08013699   Thumb Code    36  finsh_heap.o(.text)
    finsh_heap_free                          0x080137bd   Thumb Code    34  finsh_heap.o(.text)
    finsh_heap_allocate                      0x0801382d   Thumb Code   106  finsh_heap.o(.text)
    finsh_init                               0x080138a9   Thumb Code    30  finsh_init.o(.text)
    finsh_stack_bottom                       0x080138c7   Thumb Code     6  finsh_init.o(.text)
    finsh_flush                              0x080138cd   Thumb Code    22  finsh_init.o(.text)
    finsh_reset                              0x080138e3   Thumb Code    24  finsh_init.o(.text)
    finsh_node_init                          0x08013901   Thumb Code    16  finsh_node.o(.text)
    finsh_node_allocate                      0x08013911   Thumb Code    56  finsh_node.o(.text)
    finsh_node_new_id                        0x08013949   Thumb Code   118  finsh_node.o(.text)
    finsh_node_new_char                      0x080139bf   Thumb Code    30  finsh_node.o(.text)
    finsh_node_new_int                       0x080139dd   Thumb Code    30  finsh_node.o(.text)
    finsh_node_new_long                      0x080139fb   Thumb Code    30  finsh_node.o(.text)
    finsh_node_new_string                    0x08013a19   Thumb Code    74  finsh_node.o(.text)
    finsh_node_new_ptr                       0x08013a63   Thumb Code    30  finsh_node.o(.text)
    OP_no_op                                 0x08013a85   Thumb Code     2  finsh_ops.o(.text)
    OP_add_byte                              0x08013a87   Thumb Code    42  finsh_ops.o(.text)
    OP_add_word                              0x08013ab1   Thumb Code    44  finsh_ops.o(.text)
    OP_add_dword                             0x08013add   Thumb Code    42  finsh_ops.o(.text)
    OP_sub_byte                              0x08013b07   Thumb Code    42  finsh_ops.o(.text)
    OP_sub_word                              0x08013b31   Thumb Code    44  finsh_ops.o(.text)
    OP_sub_dword                             0x08013b5d   Thumb Code    42  finsh_ops.o(.text)
    OP_div_byte                              0x08013b87   Thumb Code    44  finsh_ops.o(.text)
    OP_div_word                              0x08013bb3   Thumb Code    46  finsh_ops.o(.text)
    OP_div_dword                             0x08013be1   Thumb Code    44  finsh_ops.o(.text)
    OP_mod_byte                              0x08013c0d   Thumb Code    48  finsh_ops.o(.text)
    OP_mod_word                              0x08013c3d   Thumb Code    48  finsh_ops.o(.text)
    OP_mod_dword                             0x08013c6d   Thumb Code    48  finsh_ops.o(.text)
    OP_mul_byte                              0x08013c9d   Thumb Code    44  finsh_ops.o(.text)
    OP_mul_word                              0x08013cc9   Thumb Code    46  finsh_ops.o(.text)
    OP_mul_dword                             0x08013cf7   Thumb Code    42  finsh_ops.o(.text)
    OP_and_byte                              0x08013d21   Thumb Code    42  finsh_ops.o(.text)
    OP_and_word                              0x08013d4b   Thumb Code    42  finsh_ops.o(.text)
    OP_and_dword                             0x08013d75   Thumb Code    42  finsh_ops.o(.text)
    OP_or_byte                               0x08013d9f   Thumb Code    42  finsh_ops.o(.text)
    OP_or_word                               0x08013dc9   Thumb Code    42  finsh_ops.o(.text)
    OP_or_dword                              0x08013df3   Thumb Code    42  finsh_ops.o(.text)
    OP_xor_byte                              0x08013e1d   Thumb Code    42  finsh_ops.o(.text)
    OP_xor_word                              0x08013e47   Thumb Code    46  finsh_ops.o(.text)
    OP_xor_dword                             0x08013e75   Thumb Code    42  finsh_ops.o(.text)
    OP_bw_byte                               0x08013e9f   Thumb Code    20  finsh_ops.o(.text)
    OP_bw_word                               0x08013eb3   Thumb Code    20  finsh_ops.o(.text)
    OP_bw_dword                              0x08013ec7   Thumb Code    20  finsh_ops.o(.text)
    OP_shl_byte                              0x08013edb   Thumb Code    42  finsh_ops.o(.text)
    OP_shl_word                              0x08013f05   Thumb Code    44  finsh_ops.o(.text)
    OP_shl_dword                             0x08013f31   Thumb Code    42  finsh_ops.o(.text)
    OP_shr_byte                              0x08013f5b   Thumb Code    42  finsh_ops.o(.text)
    OP_shr_word                              0x08013f85   Thumb Code    42  finsh_ops.o(.text)
    OP_shr_dword                             0x08013faf   Thumb Code    42  finsh_ops.o(.text)
    OP_ld_byte                               0x08013fd9   Thumb Code    34  finsh_ops.o(.text)
    OP_ld_word                               0x08013ffb   Thumb Code    46  finsh_ops.o(.text)
    OP_ld_dword                              0x08014029   Thumb Code    64  finsh_ops.o(.text)
    OP_ld_value_byte                         0x08014069   Thumb Code    66  finsh_ops.o(.text)
    OP_ld_value_byte_stack                   0x080140ab   Thumb Code    20  finsh_ops.o(.text)
    OP_ld_value_word                         0x080140bf   Thumb Code    66  finsh_ops.o(.text)
    OP_ld_value_word_stack                   0x08014101   Thumb Code    20  finsh_ops.o(.text)
    OP_ld_value_dword                        0x08014115   Thumb Code    66  finsh_ops.o(.text)
    OP_ld_value_dword_stack                  0x08014157   Thumb Code    20  finsh_ops.o(.text)
    OP_st_byte                               0x0801416b   Thumb Code    30  finsh_ops.o(.text)
    OP_st_word                               0x08014189   Thumb Code    30  finsh_ops.o(.text)
    OP_st_dword                              0x080141a7   Thumb Code    30  finsh_ops.o(.text)
    OP_pop                                   0x080141c5   Thumb Code    12  finsh_ops.o(.text)
    OP_call                                  0x080141d1   Thumb Code   906  finsh_ops.o(.text)
    finsh_parser_run                         0x08014df1   Thumb Code   220  finsh_parser.o(.text)
    finsh_parser_init                        0x08014ecd   Thumb Code    16  finsh_parser.o(.text)
    finsh_var_init                           0x08014edd   Thumb Code    14  finsh_var.o(.text)
    finsh_var_insert                         0x08014eeb   Thumb Code   112  finsh_var.o(.text)
    finsh_var_delete                         0x08014f5b   Thumb Code    68  finsh_var.o(.text)
    finsh_var_lookup                         0x08014f9f   Thumb Code    58  finsh_var.o(.text)
    finsh_sysvar_append                      0x08014fd9   Thumb Code    62  finsh_var.o(.text)
    finsh_sysvar_lookup                      0x08015017   Thumb Code    78  finsh_var.o(.text)
    finsh_vm_run                             0x08015075   Thumb Code    62  finsh_vm.o(.text)
    finsh_syscall_append                     0x080150b3   Thumb Code    54  finsh_vm.o(.text)
    finsh_syscall_lookup                     0x080150e9   Thumb Code    78  finsh_vm.o(.text)
    finsh_token_init                         0x08015159   Thumb Code    20  finsh_token.o(.text)
    token_get_string                         0x0801552d   Thumb Code   120  finsh_token.o(.text)
    finsh_token_token                        0x08015765   Thumb Code    24  finsh_token.o(.text)
    finsh_token_get_token                    0x0801577d   Thumb Code    20  finsh_token.o(.text)
    dfs_init                                 0x08015795   Thumb Code    46  dfs.o(.text)
    dfs_lock                                 0x080157c3   Thumb Code    46  dfs.o(.text)
    dfs_unlock                               0x080157f1   Thumb Code    10  dfs.o(.text)
    fd_new                                   0x080157fb   Thumb Code    62  dfs.o(.text)
    fd_get                                   0x08015839   Thumb Code    58  dfs.o(.text)
    fd_put                                   0x08015873   Thumb Code    64  dfs.o(.text)
    dfs_normalize_path                       0x080158b3   Thumb Code   370  dfs.o(.text)
    fd_is_open                               0x08015a25   Thumb Code   148  dfs.o(.text)
    dfs_subdir                               0x08015ab9   Thumb Code    56  dfs.o(.text)
    dfs_register                             0x08015b91   Thumb Code    76  dfs_fs.o(.text)
    dfs_filesystem_lookup                    0x08015bdd   Thumb Code   102  dfs_fs.o(.text)
    dfs_filesystem_get_partition             0x08015c43   Thumb Code   242  dfs_fs.o(.text)
    dfs_mount                                0x08015d35   Thumb Code   400  dfs_fs.o(.text)
    dfs_unmount                              0x08015ec5   Thumb Code   154  dfs_fs.o(.text)
    dfs_mkfs                                 0x08015f5f   Thumb Code   296  dfs_fs.o(.text)
    dfs_statfs                               0x08016087   Thumb Code    40  dfs_fs.o(.text)
    mkfs                                     0x080160af   Thumb Code    16  dfs_fs.o(.text)
    df                                       0x080160bf   Thumb Code    60  dfs_fs.o(.text)
    dfs_file_open                            0x0801617d   Thumb Code   220  dfs_file.o(.text)
    dfs_file_close                           0x08016259   Thumb Code    56  dfs_file.o(.text)
    dfs_file_ioctl                           0x08016291   Thumb Code    52  dfs_file.o(.text)
    dfs_file_read                            0x080162c5   Thumb Code    68  dfs_file.o(.text)
    dfs_file_getdents                        0x08016309   Thumb Code    54  dfs_file.o(.text)
    dfs_file_unlink                          0x0801633f   Thumb Code   148  dfs_file.o(.text)
    dfs_file_write                           0x080163d3   Thumb Code    48  dfs_file.o(.text)
    dfs_file_flush                           0x08016403   Thumb Code    36  dfs_file.o(.text)
    dfs_file_lseek                           0x08016427   Thumb Code    54  dfs_file.o(.text)
    dfs_file_stat                            0x0801645d   Thumb Code   188  dfs_file.o(.text)
    dfs_file_rename                          0x08016519   Thumb Code   176  dfs_file.o(.text)
    ls                                       0x080165c9   Thumb Code   212  dfs_file.o(.text)
    rm                                       0x0801669d   Thumb Code    24  dfs_file.o(.text)
    cat                                      0x080166b5   Thumb Code    80  dfs_file.o(.text)
    copy                                     0x080168b3   Thumb Code   598  dfs_file.o(.text)
    open                                     0x08016b09   Thumb Code    94  dfs_posix.o(.text)
    close                                    0x08016b67   Thumb Code    68  dfs_posix.o(.text)
    read                                     0x08016bab   Thumb Code    80  dfs_posix.o(.text)
    write                                    0x08016bfb   Thumb Code    80  dfs_posix.o(.text)
    lseek                                    0x08016c4b   Thumb Code   138  dfs_posix.o(.text)
    rename                                   0x08016cd5   Thumb Code    36  dfs_posix.o(.text)
    unlink                                   0x08016cf9   Thumb Code    32  dfs_posix.o(.text)
    stat                                     0x08016d19   Thumb Code    36  dfs_posix.o(.text)
    fstat                                    0x08016d3d   Thumb Code    88  dfs_posix.o(.text)
    statfs                                   0x08016d95   Thumb Code    36  dfs_posix.o(.text)
    mkdir                                    0x08016db9   Thumb Code    92  dfs_posix.o(.text)
    rmdir                                    0x08016e15   Thumb Code    32  dfs_posix.o(.text)
    opendir                                  0x08016e35   Thumb Code   130  dfs_posix.o(.text)
    readdir                                  0x08016eb7   Thumb Code   116  dfs_posix.o(.text)
    telldir                                  0x08016f2b   Thumb Code    50  dfs_posix.o(.text)
    seekdir                                  0x08016f5d   Thumb Code    58  dfs_posix.o(.text)
    rewinddir                                0x08016f97   Thumb Code    56  dfs_posix.o(.text)
    closedir                                 0x08016fcf   Thumb Code    74  dfs_posix.o(.text)
    getcwd                                   0x08017019   Thumb Code    16  dfs_posix.o(.text)
    dfs_elm_mount                            0x080170d1   Thumb Code   222  dfs_elm.o(.text)
    dfs_elm_unmount                          0x080171af   Thumb Code    92  dfs_elm.o(.text)
    dfs_elm_mkfs                             0x0801720b   Thumb Code   166  dfs_elm.o(.text)
    dfs_elm_statfs                           0x080172b1   Thumb Code   156  dfs_elm.o(.text)
    dfs_elm_open                             0x0801734d   Thumb Code   504  dfs_elm.o(.text)
    dfs_elm_close                            0x08017545   Thumb Code   122  dfs_elm.o(.text)
    dfs_elm_ioctl                            0x080175bf   Thumb Code     8  dfs_elm.o(.text)
    dfs_elm_read                             0x080175c7   Thumb Code    92  dfs_elm.o(.text)
    dfs_elm_write                            0x08017623   Thumb Code    96  dfs_elm.o(.text)
    dfs_elm_flush                            0x08017683   Thumb Code    56  dfs_elm.o(.text)
    dfs_elm_lseek                            0x080176bb   Thumb Code   152  dfs_elm.o(.text)
    dfs_elm_getdents                         0x08017753   Thumb Code   228  dfs_elm.o(.text)
    dfs_elm_unlink                           0x08017837   Thumb Code    86  dfs_elm.o(.text)
    dfs_elm_rename                           0x0801788d   Thumb Code    94  dfs_elm.o(.text)
    dfs_elm_stat                             0x080178eb   Thumb Code   320  dfs_elm.o(.text)
    elm_init                                 0x08017a2b   Thumb Code    12  dfs_elm.o(.text)
    disk_initialize                          0x08017a37   Thumb Code     6  dfs_elm.o(.text)
    disk_status                              0x08017a3d   Thumb Code     6  dfs_elm.o(.text)
    disk_read                                0x08017a43   Thumb Code    46  dfs_elm.o(.text)
    disk_write                               0x08017a71   Thumb Code    46  dfs_elm.o(.text)
    disk_ioctl                               0x08017a9f   Thumb Code   156  dfs_elm.o(.text)
    get_fattime                              0x08017b3b   Thumb Code     4  dfs_elm.o(.text)
    ff_cre_syncobj                           0x08017b3f   Thumb Code    40  dfs_elm.o(.text)
    ff_del_syncobj                           0x08017b67   Thumb Code    16  dfs_elm.o(.text)
    ff_req_grant                             0x08017b77   Thumb Code    24  dfs_elm.o(.text)
    ff_rel_grant                             0x08017b8f   Thumb Code    12  dfs_elm.o(.text)
    clust2sect                               0x08017d55   Thumb Code    26  ff.o(.text)
    get_fat                                  0x08017d6f   Thumb Code   280  ff.o(.text)
    put_fat                                  0x08017e87   Thumb Code   340  ff.o(.text)
    f_mount                                  0x08018a45   Thumb Code    70  ff.o(.text)
    f_open                                   0x08018a8b   Thumb Code   294  ff.o(.text)
    f_read                                   0x08018bb1   Thumb Code   622  ff.o(.text)
    f_write                                  0x08018e1f   Thumb Code   670  ff.o(.text)
    f_sync                                   0x080190bd   Thumb Code   156  ff.o(.text)
    f_close                                  0x08019159   Thumb Code    22  ff.o(.text)
    f_lseek                                  0x0801916f   Thumb Code   910  ff.o(.text)
    f_opendir                                0x080194fd   Thumb Code   106  ff.o(.text)
    f_readdir                                0x08019567   Thumb Code    96  ff.o(.text)
    f_seekdir                                0x080195c7   Thumb Code    60  ff.o(.text)
    f_stat                                   0x08019603   Thumb Code    66  ff.o(.text)
    f_getfree                                0x08019645   Thumb Code   262  ff.o(.text)
    f_truncate                               0x0801974b   Thumb Code   164  ff.o(.text)
    f_unlink                                 0x080197ef   Thumb Code   174  ff.o(.text)
    f_mkdir                                  0x0801989d   Thumb Code   334  ff.o(.text)
    f_chmod                                  0x080199eb   Thumb Code    92  ff.o(.text)
    f_utime                                  0x08019a47   Thumb Code    82  ff.o(.text)
    f_rename                                 0x08019a99   Thumb Code   274  ff.o(.text)
    f_mkfs                                   0x08019bab   Thumb Code  1238  ff.o(.text)
    elm_get_vol                              0x0801a081   Thumb Code    32  ff.o(.text)
    netconn_new_with_proto_and_callback      0x0801a0ad   Thumb Code   198  api_lib.o(.text)
    netconn_delete                           0x0801a173   Thumb Code    36  api_lib.o(.text)
    netconn_getaddr                          0x0801a197   Thumb Code   162  api_lib.o(.text)
    netconn_bind                             0x0801a239   Thumb Code    98  api_lib.o(.text)
    netconn_connect                          0x0801a29b   Thumb Code    98  api_lib.o(.text)
    netconn_disconnect                       0x0801a2fd   Thumb Code    86  api_lib.o(.text)
    netconn_listen_with_backlog              0x0801a353   Thumb Code    86  api_lib.o(.text)
    netconn_accept                           0x0801a3a9   Thumb Code   790  api_lib.o(.text)
    netconn_recv_tcp_pbuf                    0x0801a82b   Thumb Code    56  api_lib.o(.text)
    netconn_recv                             0x0801a863   Thumb Code   264  api_lib.o(.text)
    netconn_recved                           0x0801a96b   Thumb Code    46  api_lib.o(.text)
    netconn_send                             0x0801a999   Thumb Code    92  api_lib.o(.text)
    netconn_sendto                           0x0801a9f5   Thumb Code    44  api_lib.o(.text)
    netconn_write_partly                     0x0801aa21   Thumb Code   442  api_lib.o(.text)
    netconn_close                            0x0801ac39   Thumb Code    14  api_lib.o(.text)
    netconn_shutdown                         0x0801ac47   Thumb Code    36  api_lib.o(.text)
    netconn_gethostbyname                    0x0801ac6b   Thumb Code   146  api_lib.o(.text)
    netconn_free                             0x0801b80b   Thumb Code   136  api_msg.o(.text)
    netconn_alloc                            0x0801b893   Thumb Code   172  api_msg.o(.text)
    do_newconn                               0x0801ba97   Thumb Code    32  api_msg.o(.text)
    do_delconn                               0x0801bb7f   Thumb Code   626  api_msg.o(.text)
    do_bind                                  0x0801bdf1   Thumb Code   116  api_msg.o(.text)
    do_connect                               0x0801bf37   Thumb Code   230  api_msg.o(.text)
    do_disconnect                            0x0801c01d   Thumb Code    46  api_msg.o(.text)
    do_listen                                0x0801c04b   Thumb Code   424  api_msg.o(.text)
    do_send                                  0x0801c1f3   Thumb Code   166  api_msg.o(.text)
    do_recv                                  0x0801c299   Thumb Code    72  api_msg.o(.text)
    do_write                                 0x0801c2e1   Thumb Code   166  api_msg.o(.text)
    do_getaddr                               0x0801c387   Thumb Code   198  api_msg.o(.text)
    do_close                                 0x0801c44d   Thumb Code   184  api_msg.o(.text)
    do_gethostbyname                         0x0801c553   Thumb Code    40  api_msg.o(.text)
    netbuf_new                               0x0801c5d9   Thumb Code    32  netbuf.o(.text)
    netbuf_delete                            0x0801c5f9   Thumb Code    30  netbuf.o(.text)
    netbuf_alloc                             0x0801c617   Thumb Code   104  netbuf.o(.text)
    netbuf_free                              0x0801c67f   Thumb Code    50  netbuf.o(.text)
    netbuf_ref                               0x0801c6b1   Thumb Code    92  netbuf.o(.text)
    netbuf_chain                             0x0801c70d   Thumb Code    80  netbuf.o(.text)
    netbuf_data                              0x0801c75d   Thumb Code   124  netbuf.o(.text)
    netbuf_next                              0x0801c7d9   Thumb Code    66  netbuf.o(.text)
    netbuf_first                             0x0801c81b   Thumb Code    38  netbuf.o(.text)
    lwip_gethostbyname                       0x0801c989   Thumb Code    66  netdb.o(.text)
    lwip_gethostbyname_r                     0x0801c9cb   Thumb Code   192  netdb.o(.text)
    lwip_freeaddrinfo                        0x0801ca8b   Thumb Code    22  netdb.o(.text)
    lwip_getaddrinfo                         0x0801caa1   Thumb Code   274  netdb.o(.text)
    do_netifapi_netif_add                    0x0801cc45   Thumb Code    46  netifapi.o(.text)
    do_netifapi_netif_set_addr               0x0801cc73   Thumb Code    26  netifapi.o(.text)
    do_netifapi_netif_common                 0x0801cc8d   Thumb Code    36  netifapi.o(.text)
    netifapi_netif_add                       0x0801ccb1   Thumb Code    64  netifapi.o(.text)
    netifapi_netif_set_addr                  0x0801ccf1   Thumb Code    40  netifapi.o(.text)
    netifapi_netif_common                    0x0801cd19   Thumb Code    36  netifapi.o(.text)
    lwip_socket_init                         0x0801cd3d   Thumb Code     2  sockets.o(.text)
    lwip_accept                              0x0801cff5   Thumb Code   670  sockets.o(.text)
    lwip_bind                                0x0801d293   Thumb Code   188  sockets.o(.text)
    lwip_close                               0x0801d34f   Thumb Code    98  sockets.o(.text)
    lwip_connect                             0x0801d3b1   Thumb Code   204  sockets.o(.text)
    lwip_listen                              0x0801d47d   Thumb Code   154  sockets.o(.text)
    lwip_recvfrom                            0x0801d517   Thumb Code   804  sockets.o(.text)
    lwip_read                                0x0801d83b   Thumb Code    28  sockets.o(.text)
    lwip_recv                                0x0801d857   Thumb Code    34  sockets.o(.text)
    lwip_sendto                              0x0801d879   Thumb Code   280  sockets.o(.text)
    lwip_send                                0x0801d991   Thumb Code   156  sockets.o(.text)
    lwip_socket                              0x0801da2d   Thumb Code   304  sockets.o(.text)
    lwip_write                               0x0801db5d   Thumb Code    22  sockets.o(.text)
    lwip_select                              0x0801dce3   Thumb Code   860  sockets.o(.text)
    lwip_shutdown                            0x0801e03f   Thumb Code   332  sockets.o(.text)
    lwip_getpeername                         0x0801e209   Thumb Code    22  sockets.o(.text)
    lwip_getsockname                         0x0801e21f   Thumb Code    22  sockets.o(.text)
    lwip_getsockopt                          0x0801e405   Thumb Code   418  sockets.o(.text)
    lwip_setsockopt                          0x0801e743   Thumb Code   322  sockets.o(.text)
    lwip_ioctl                               0x0801e885   Thumb Code   126  sockets.o(.text)
    lwip_fcntl                               0x0801e903   Thumb Code   122  sockets.o(.text)
    tcpip_input                              0x0801ea5f   Thumb Code    72  tcpip.o(.text)
    tcpip_callback_with_block                0x0801eaa7   Thumb Code    90  tcpip.o(.text)
    tcpip_timeout                            0x0801eb01   Thumb Code    66  tcpip.o(.text)
    tcpip_untimeout                          0x0801eb43   Thumb Code    58  tcpip.o(.text)
    tcpip_apimsg                             0x0801eb7d   Thumb Code    56  tcpip.o(.text)
    tcpip_netifapi                           0x0801ebb5   Thumb Code    76  tcpip.o(.text)
    tcpip_callbackmsg_new                    0x0801ec01   Thumb Code    34  tcpip.o(.text)
    tcpip_callbackmsg_delete                 0x0801ec23   Thumb Code    12  tcpip.o(.text)
    tcpip_trycallback                        0x0801ec2f   Thumb Code    28  tcpip.o(.text)
    tcpip_init                               0x0801ec4b   Thumb Code    74  tcpip.o(.text)
    pbuf_free_callback                       0x0801eca3   Thumb Code    16  tcpip.o(.text)
    mem_free_callback                        0x0801ecb3   Thumb Code    16  tcpip.o(.text)
    sys_arch_assert                          0x0801ed97   Thumb Code    54  sys_arch.o(.text)
    lwip_system_init                         0x0801ee69   Thumb Code   146  sys_arch.o(.text)
    sys_init                                 0x0801eefb   Thumb Code     2  sys_arch.o(.text)
    lwip_sys_init                            0x0801eefd   Thumb Code     8  sys_arch.o(.text)
    sys_sem_new                              0x0801ef05   Thumb Code   118  sys_arch.o(.text)
    sys_sem_free                             0x0801ef7b   Thumb Code    70  sys_arch.o(.text)
    sys_sem_signal                           0x0801efc1   Thumb Code    12  sys_arch.o(.text)
    sys_arch_sem_wait                        0x0801efcd   Thumb Code   140  sys_arch.o(.text)
    sys_sem_valid                            0x0801f059   Thumb Code     6  sys_arch.o(.text)
    sys_sem_set_invalid                      0x0801f05f   Thumb Code     6  sys_arch.o(.text)
    sys_mutex_new                            0x0801f065   Thumb Code   116  sys_arch.o(.text)
    sys_mutex_lock                           0x0801f0d9   Thumb Code    76  sys_arch.o(.text)
    sys_mutex_unlock                         0x0801f125   Thumb Code    12  sys_arch.o(.text)
    sys_mutex_free                           0x0801f131   Thumb Code   344  sys_arch.o(.text)
    sys_mutex_valid                          0x0801f289   Thumb Code     6  sys_arch.o(.text)
    sys_mutex_set_invalid                    0x0801f28f   Thumb Code     6  sys_arch.o(.text)
    sys_mbox_new                             0x0801f295   Thumb Code   128  sys_arch.o(.text)
    sys_mbox_free                            0x0801f315   Thumb Code    78  sys_arch.o(.text)
    sys_mbox_post                            0x0801f363   Thumb Code    86  sys_arch.o(.text)
    sys_mbox_trypost                         0x0801f3b9   Thumb Code    26  sys_arch.o(.text)
    sys_arch_mbox_fetch                      0x0801f3d3   Thumb Code   174  sys_arch.o(.text)
    sys_arch_mbox_tryfetch                   0x0801f481   Thumb Code    34  sys_arch.o(.text)
    sys_mbox_valid                           0x0801f4a3   Thumb Code     6  sys_arch.o(.text)
    sys_mbox_set_invalid                     0x0801f4a9   Thumb Code     6  sys_arch.o(.text)
    sys_thread_new                           0x0801f4af   Thumb Code   152  sys_arch.o(.text)
    sys_arch_protect                         0x0801f547   Thumb Code    12  sys_arch.o(.text)
    sys_arch_unprotect                       0x0801f553   Thumb Code    12  sys_arch.o(.text)
    sys_jiffies                              0x0801f55f   Thumb Code     8  sys_arch.o(.text)
    sys_now                                  0x0801f567   Thumb Code    14  sys_arch.o(.text)
    lwip_htons                               0x0801f5c9   Thumb Code    12  def.o(.text)
    lwip_ntohs                               0x0801f5d5   Thumb Code    12  def.o(.text)
    lwip_htonl                               0x0801f5e1   Thumb Code    26  def.o(.text)
    lwip_ntohl                               0x0801f5fb   Thumb Code    12  def.o(.text)
    dns_setserver                            0x0801f609   Thumb Code    28  dns.o(.text)
    dns_init                                 0x0801f7e7   Thumb Code    78  dns.o(.text)
    dns_getserver                            0x0801f835   Thumb Code    20  dns.o(.text)
    dns_tmr                                  0x0801fb91   Thumb Code    14  dns.o(.text)
    dns_gethostbyname                        0x0801fccf   Thumb Code    86  dns.o(.text)
    lwip_init                                0x0801fd55   Thumb Code    32  init.o(.text)
    netif_init                               0x0801fd75   Thumb Code     2  netif.o(.text)
    netif_set_gw                             0x0801fd77   Thumb Code    12  netif.o(.text)
    netif_set_netmask                        0x0801fd83   Thumb Code    12  netif.o(.text)
    netif_set_ipaddr                         0x0801fd8f   Thumb Code   110  netif.o(.text)
    netif_set_addr                           0x0801fdfd   Thumb Code    40  netif.o(.text)
    netif_add                                0x0801fe25   Thumb Code   120  netif.o(.text)
    netif_set_default                        0x0801fe9d   Thumb Code     6  netif.o(.text)
    netif_set_down                           0x0801fea3   Thumb Code    42  netif.o(.text)
    netif_remove                             0x0801fecd   Thumb Code    90  netif.o(.text)
    netif_find                               0x0801ff27   Thumb Code    64  netif.o(.text)
    netif_set_up                             0x0801ff67   Thumb Code    54  netif.o(.text)
    netif_set_link_up                        0x0801ff9d   Thumb Code    54  netif.o(.text)
    netif_set_link_down                      0x0801ffd3   Thumb Code    24  netif.o(.text)
    pbuf_free                                0x080200d5   Thumb Code   208  pbuf.o(.text)
    pbuf_alloc                               0x080201a5   Thumb Code  1136  pbuf.o(.text)
    pbuf_realloc                             0x08020615   Thumb Code   252  pbuf.o(.text)
    pbuf_header                              0x08020711   Thumb Code   206  pbuf.o(.text)
    pbuf_clen                                0x080207df   Thumb Code    18  pbuf.o(.text)
    pbuf_ref                                 0x080207f1   Thumb Code    26  pbuf.o(.text)
    pbuf_cat                                 0x0802080b   Thumb Code   138  pbuf.o(.text)
    pbuf_chain                               0x08020895   Thumb Code    22  pbuf.o(.text)
    pbuf_dechain                             0x080208ab   Thumb Code   122  pbuf.o(.text)
    pbuf_copy                                0x08020925   Thumb Code   814  pbuf.o(.text)
    pbuf_copy_partial                        0x08020c53   Thumb Code   190  pbuf.o(.text)
    pbuf_take                                0x08020d11   Thumb Code   210  pbuf.o(.text)
    pbuf_coalesce                            0x08020de3   Thumb Code    84  pbuf.o(.text)
    pbuf_get_at                              0x08020e37   Thumb Code    46  pbuf.o(.text)
    pbuf_memcmp                              0x08020e65   Thumb Code    96  pbuf.o(.text)
    pbuf_memfind                             0x08020ec5   Thumb Code    76  pbuf.o(.text)
    pbuf_strstr                              0x08020f11   Thumb Code    60  pbuf.o(.text)
    raw_input                                0x08021035   Thumb Code   102  raw.o(.text)
    raw_bind                                 0x0802109b   Thumb Code    16  raw.o(.text)
    raw_connect                              0x080210ab   Thumb Code    16  raw.o(.text)
    raw_recv                                 0x080210bb   Thumb Code     6  raw.o(.text)
    raw_sendto                               0x080210c1   Thumb Code   178  raw.o(.text)
    raw_send                                 0x08021173   Thumb Code    18  raw.o(.text)
    raw_remove                               0x08021185   Thumb Code    58  raw.o(.text)
    raw_new                                  0x080211bf   Thumb Code    44  raw.o(.text)
    tcp_init                                 0x08021261   Thumb Code     2  tcp.o(.text)
    tcp_seg_free                             0x08021263   Thumb Code    24  tcp.o(.text)
    tcp_segs_free                            0x0802127b   Thumb Code    24  tcp.o(.text)
    tcp_pcb_purge                            0x08021293   Thumb Code    72  tcp.o(.text)
    tcp_slowtmr                              0x080212db   Thumb Code  1428  tcp.o(.text)
    tcp_pcb_remove                           0x0802186f   Thumb Code   222  tcp.o(.text)
    tcp_close                                0x08021b0f   Thumb Code    28  tcp.o(.text)
    tcp_update_rcv_ann_wnd                   0x08021b2b   Thumb Code   106  tcp.o(.text)
    tcp_recved                               0x08021b95   Thumb Code   446  tcp.o(.text)
    tcp_recv_null                            0x08021d53   Thumb Code    46  tcp.o(.text)
    tcp_process_refused_data                 0x08021d81   Thumb Code   142  tcp.o(.text)
    tcp_fasttmr                              0x08021e0f   Thumb Code   110  tcp.o(.text)
    tcp_tmr                                  0x08021e7d   Thumb Code    30  tcp.o(.text)
    tcp_shutdown                             0x08021e9b   Thumb Code    98  tcp.o(.text)
    tcp_abandon                              0x08021efd   Thumb Code   170  tcp.o(.text)
    tcp_abort                                0x08021fa7   Thumb Code    14  tcp.o(.text)
    tcp_bind                                 0x08022015   Thumb Code   166  tcp.o(.text)
    tcp_listen_with_backlog                  0x080220c3   Thumb Code   220  tcp.o(.text)
    tcp_eff_send_mss                         0x0802219f   Thumb Code    46  tcp.o(.text)
    tcp_next_iss                             0x080221cd   Thumb Code    20  tcp.o(.text)
    tcp_connect                              0x080221e1   Thumb Code   538  tcp.o(.text)
    tcp_setprio                              0x080223fb   Thumb Code     4  tcp.o(.text)
    tcp_seg_copy                             0x080223ff   Thumb Code    38  tcp.o(.text)
    tcp_alloc                                0x080224a3   Thumb Code   200  tcp.o(.text)
    tcp_new                                  0x0802256b   Thumb Code    10  tcp.o(.text)
    tcp_arg                                  0x08022575   Thumb Code     4  tcp.o(.text)
    tcp_recv                                 0x08022579   Thumb Code    44  tcp.o(.text)
    tcp_sent                                 0x080225a5   Thumb Code    42  tcp.o(.text)
    tcp_err                                  0x080225cf   Thumb Code    44  tcp.o(.text)
    tcp_accept                               0x080225fb   Thumb Code     4  tcp.o(.text)
    tcp_poll                                 0x080225ff   Thumb Code    50  tcp.o(.text)
    tcp_debug_state_str                      0x08022631   Thumb Code    10  tcp.o(.text)
    tcp_input                                0x08023d81   Thumb Code  1640  tcp_in.o(.text)
    tcp_enqueue_flags                        0x08024551   Thumb Code   406  tcp_out.o(.text)
    tcp_send_fin                             0x080246e7   Thumb Code    74  tcp_out.o(.text)
    tcp_write                                0x080249ad   Thumb Code  1566  tcp_out.o(.text)
    tcp_send_empty_ack                       0x08024fcb   Thumb Code    78  tcp_out.o(.text)
    tcp_output                               0x080250e1   Thumb Code   660  tcp_out.o(.text)
    tcp_rst                                  0x08025375   Thumb Code   152  tcp_out.o(.text)
    tcp_rexmit_rto                           0x0802540d   Thumb Code    58  tcp_out.o(.text)
    tcp_rexmit                               0x08025447   Thumb Code    90  tcp_out.o(.text)
    tcp_rexmit_fast                          0x080254a1   Thumb Code   112  tcp_out.o(.text)
    tcp_keepalive                            0x08025511   Thumb Code    68  tcp_out.o(.text)
    tcp_zero_window_probe                    0x08025555   Thumb Code   164  tcp_out.o(.text)
    sys_timeout                              0x080255f9   Thumb Code   178  timers.o(.text)
    tcp_timer_needed                         0x080256d3   Thumb Code    38  timers.o(.text)
    sys_timeouts_init                        0x08025725   Thumb Code    28  timers.o(.text)
    sys_untimeout                            0x08025741   Thumb Code    88  timers.o(.text)
    sys_timeouts_mbox_fetch                  0x08025799   Thumb Code   130  timers.o(.text)
    udp_init                                 0x080258bd   Thumb Code     2  udp.o(.text)
    udp_input                                0x0802590f   Thumb Code   438  udp.o(.text)
    udp_bind                                 0x08025ac5   Thumb Code   148  udp.o(.text)
    udp_sendto_if                            0x08025b59   Thumb Code   232  udp.o(.text)
    udp_sendto                               0x08025c41   Thumb Code    46  udp.o(.text)
    udp_send                                 0x08025c6f   Thumb Code    20  udp.o(.text)
    udp_connect                              0x08025c83   Thumb Code   276  udp.o(.text)
    udp_disconnect                           0x08025d97   Thumb Code    16  udp.o(.text)
    udp_recv                                 0x08025da7   Thumb Code     6  udp.o(.text)
    udp_remove                               0x08025dad   Thumb Code    58  udp.o(.text)
    udp_new                                  0x08025de7   Thumb Code    30  udp.o(.text)
    icmp_input                               0x08025e0d   Thumb Code   484  icmp.o(.text)
    icmp_dest_unreach                        0x0802607b   Thumb Code    18  icmp.o(.text)
    inet_chksum_pseudo                       0x0802620f   Thumb Code   162  inet_chksum.o(.text)
    inet_chksum_pseudo_partial               0x080262b1   Thumb Code   212  inet_chksum.o(.text)
    inet_chksum                              0x08026385   Thumb Code    20  inet_chksum.o(.text)
    inet_chksum_pbuf                         0x08026399   Thumb Code    86  inet_chksum.o(.text)
    ip_route                                 0x08026401   Thumb Code    76  ip.o(.text)
    ip_input                                 0x0802644d   Thumb Code   370  ip.o(.text)
    ip_output_if                             0x080265bf   Thumb Code   222  ip.o(.text)
    ip_output                                0x0802669d   Thumb Code    82  ip.o(.text)
    ip4_addr_isbroadcast                     0x08026789   Thumb Code    78  ip_addr.o(.text)
    ip4_addr_netmask_valid                   0x080267d7   Thumb Code    52  ip_addr.o(.text)
    ipaddr_aton                              0x0802680b   Thumb Code   366  ip_addr.o(.text)
    ipaddr_addr                              0x08026979   Thumb Code    24  ip_addr.o(.text)
    ipaddr_ntoa_r                            0x08026991   Thumb Code   168  ip_addr.o(.text)
    ipaddr_ntoa                              0x08026a39   Thumb Code    16  ip_addr.o(.text)
    etharp_tmr                               0x08026aff   Thumb Code   138  etharp.o(.text)
    etharp_cleanup_netif                     0x08026fe7   Thumb Code    52  etharp.o(.text)
    etharp_find_addr                         0x0802701b   Thumb Code   108  etharp.o(.text)
    etharp_request                           0x080272c3   Thumb Code    36  etharp.o(.text)
    etharp_query                             0x0802741f   Thumb Code   506  etharp.o(.text)
    etharp_output                            0x08027619   Thumb Code   390  etharp.o(.text)
    ethernet_input                           0x0802779f   Thumb Code   338  etharp.o(.text)
    eth_device_init_with_flag                0x08027959   Thumb Code   178  ethernetif.o(.text)
    eth_device_init                          0x08027a0b   Thumb Code    20  ethernetif.o(.text)
    eth_device_ready                         0x08027a1f   Thumb Code    22  ethernetif.o(.text)
    eth_device_linkchange                    0x08027a35   Thumb Code    82  ethernetif.o(.text)
    eth_system_device_init                   0x08027ba1   Thumb Code   624  ethernetif.o(.text)
    set_if                                   0x08027e11   Thumb Code   140  ethernetif.o(.text)
    set_dns                                  0x08027e9d   Thumb Code    26  ethernetif.o(.text)
    list_if                                  0x08027eb7   Thumb Code   318  ethernetif.o(.text)
    list_tcps                                0x08027ff5   Thumb Code   254  ethernetif.o(.text)
    rt_components_board_init                 0x080282c9   Thumb Code    20  components.o(.text)
    rt_components_init                       0x080282dd   Thumb Code    20  components.o(.text)
    atoi                                     0x080282fd   Thumb Code    26  atoi.o(.text)
    memcmp                                   0x08028317   Thumb Code    88  memcmp.o(.text)
    strcpy                                   0x0802836f   Thumb Code    72  strcpy.o(.text)
    strrchr                                  0x080283b7   Thumb Code    22  strrchr.o(.text)
    strlen                                   0x080283cd   Thumb Code    62  strlen.o(.text)
    strncmp                                  0x0802840b   Thumb Code   150  strncmp.o(.text)
    __aeabi_memcpy                           0x080284a1   Thumb Code     0  rt_memcpy_v6.o(.text)
    __rt_memcpy                              0x080284a1   Thumb Code   138  rt_memcpy_v6.o(.text)
    _memcpy_lastbytes                        0x08028507   Thumb Code     0  rt_memcpy_v6.o(.text)
    __aeabi_memcpy4                          0x0802852b   Thumb Code     0  rt_memcpy_w.o(.text)
    __aeabi_memcpy8                          0x0802852b   Thumb Code     0  rt_memcpy_w.o(.text)
    __rt_memcpy_w                            0x0802852b   Thumb Code   100  rt_memcpy_w.o(.text)
    _memcpy_lastbytes_aligned                0x08028573   Thumb Code     0  rt_memcpy_w.o(.text)
    __aeabi_memclr                           0x0802858f   Thumb Code     0  rt_memclr.o(.text)
    __rt_memclr                              0x0802858f   Thumb Code    68  rt_memclr.o(.text)
    _memset                                  0x08028593   Thumb Code     0  rt_memclr.o(.text)
    __aeabi_memclr4                          0x080285d3   Thumb Code     0  rt_memclr_w.o(.text)
    __aeabi_memclr8                          0x080285d3   Thumb Code     0  rt_memclr_w.o(.text)
    __rt_memclr_w                            0x080285d3   Thumb Code    78  rt_memclr_w.o(.text)
    _memset_w                                0x080285d7   Thumb Code     0  rt_memclr_w.o(.text)
    strncpy                                  0x08028621   Thumb Code    86  strncpy.o(.text)
    strcmp                                   0x08028679   Thumb Code   128  strcmpv7m.o(.text)
    mktime                                   0x0802872f   Thumb Code   358  mktime.o(.text)
    __use_two_region_memory                  0x0802889d   Thumb Code     2  heapauxi.o(.text)
    __rt_heap_escrow$2region                 0x0802889f   Thumb Code     2  heapauxi.o(.text)
    __rt_heap_expand$2region                 0x080288a1   Thumb Code     2  heapauxi.o(.text)
    __aeabi_errno_addr                       0x080288a5   Thumb Code     8  rt_errno_addr_intlibspace.o(.text)
    __errno$intlibspace                      0x080288a5   Thumb Code     0  rt_errno_addr_intlibspace.o(.text)
    __rt_errno_addr$intlibspace              0x080288a5   Thumb Code     0  rt_errno_addr_intlibspace.o(.text)
    strtol                                   0x080288ad   Thumb Code   112  strtol.o(.text)
    __user_libspace                          0x0802891d   Thumb Code     8  libspace.o(.text)
    __user_perproc_libspace                  0x0802891d   Thumb Code     0  libspace.o(.text)
    __user_perthread_libspace                0x0802891d   Thumb Code     0  libspace.o(.text)
    __rt_ctype_table                         0x08028925   Thumb Code    16  rt_ctype_table.o(.text)
    _strtoul                                 0x08028935   Thumb Code   158  _strtoul.o(.text)
    __user_setup_stackheap                   0x080289d3   Thumb Code    74  sys_stackheap_outer.o(.text)
    __rt_locale                              0x08028a1d   Thumb Code     8  rt_locale_intlibspace.o(.text)
    _chval                                   0x08028a25   Thumb Code    28  _chval.o(.text)
    exit                                     0x08028a41   Thumb Code    12  exit.o(.text)
    _sys_exit                                0x08028a4d   Thumb Code     8  sys_exit.o(.text)
    __I$use$semihosting                      0x08028a59   Thumb Code     0  use_no_semi.o(.text)
    __use_no_semihosting_swi                 0x08028a59   Thumb Code     2  use_no_semi.o(.text)
    __semihosting_library_function           0x08028a5b   Thumb Code     0  indicate_semi.o(.text)
    _get_lc_ctype                            0x08028a5d   Thumb Code    44  lc_ctype_c.o(locale$$code)
    _fp_init                                 0x08028a89   Thumb Code    10  fpinit.o(x$fpl$fpinit)
    __fplib_config_fpu_vfp                   0x08028a91   Thumb Code     0  fpinit.o(x$fpl$fpinit)
    __fplib_config_pureend_doubles           0x08028a91   Thumb Code     0  fpinit.o(x$fpl$fpinit)
    __fsym_reset_name                        0x08028c90   Data           6  board.o(.constdata)
    __fsym_reset_desc                        0x08028c96   Data           6  board.o(.constdata)
    __fsym_dp83483_name                      0x08028cf4   Data           8  stm32f4xx_eth.o(.constdata)
    __fsym_dp83483_desc                      0x08028cfc   Data          19  stm32f4xx_eth.o(.constdata)
    __fsym_tcpclient_name                    0x08028d32   Data          10  tcpclient.o(.constdata)
    __fsym_tcpclient_desc                    0x08028d3c   Data          19  tcpclient.o(.constdata)
    __fsym_tcpserv_name                      0x08028d73   Data           8  tcpserver.o(.constdata)
    __fsym_tcpserv_desc                      0x08028d7b   Data          19  tcpserver.o(.constdata)
    __lowest_bit_bitmap                      0x08029023   Data         256  kservice.o(.constdata)
    __fsym_list_mem_name                     0x08029148   Data           9  mem.o(.constdata)
    __fsym_list_mem_desc                     0x08029151   Data          30  mem.o(.constdata)
    __fsym_hello_name                        0x08029790   Data           6  cmd.o(.constdata)
    __fsym_hello_desc                        0x08029796   Data          16  cmd.o(.constdata)
    __fsym_version_name                      0x080297a6   Data           8  cmd.o(.constdata)
    __fsym_version_desc                      0x080297ae   Data          35  cmd.o(.constdata)
    __fsym_list_thread_name                  0x080297d1   Data          12  cmd.o(.constdata)
    __fsym_list_thread_desc                  0x080297dd   Data          12  cmd.o(.constdata)
    __fsym_list_sem_name                     0x080297e9   Data           9  cmd.o(.constdata)
    __fsym_list_sem_desc                     0x080297f2   Data          25  cmd.o(.constdata)
    __fsym_list_event_name                   0x0802980b   Data          11  cmd.o(.constdata)
    __fsym_list_event_desc                   0x08029816   Data          21  cmd.o(.constdata)
    __fsym_list_mutex_name                   0x0802982b   Data          11  cmd.o(.constdata)
    __fsym_list_mutex_desc                   0x08029836   Data          21  cmd.o(.constdata)
    __fsym_list_mailbox_name                 0x0802984b   Data          13  cmd.o(.constdata)
    __fsym_list_mailbox_desc                 0x08029858   Data          24  cmd.o(.constdata)
    __fsym_list_msgqueue_name                0x08029870   Data          14  cmd.o(.constdata)
    __fsym_list_msgqueue_desc                0x0802987e   Data          29  cmd.o(.constdata)
    __fsym_list_mempool_name                 0x0802989b   Data          13  cmd.o(.constdata)
    __fsym_list_mempool_desc                 0x080298a8   Data          27  cmd.o(.constdata)
    __fsym_list_timer_name                   0x080298c3   Data          11  cmd.o(.constdata)
    __fsym_list_timer_desc                   0x080298ce   Data          21  cmd.o(.constdata)
    __fsym_list_device_name                  0x080298e3   Data          12  cmd.o(.constdata)
    __fsym_list_device_desc                  0x080298ef   Data          22  cmd.o(.constdata)
    __fsym_list_name                         0x08029905   Data           5  cmd.o(.constdata)
    __fsym_list_desc                         0x0802990a   Data          26  cmd.o(.constdata)
    __vsym_dummy_name                        0x08029924   Data           6  cmd.o(.constdata)
    __vsym_dummy_desc                        0x0802992a   Data          25  cmd.o(.constdata)
    op_table                                 0x08029a24   Data         196  finsh_ops.o(.constdata)
    __fsym_mkfs_name                         0x08029b4b   Data           5  dfs_fs.o(.constdata)
    __fsym_mkfs_desc                         0x08029b50   Data          19  dfs_fs.o(.constdata)
    __fsym_df_name                           0x08029b63   Data           3  dfs_fs.o(.constdata)
    __fsym_df_desc                           0x08029b66   Data          14  dfs_fs.o(.constdata)
    __fsym_ls_name                           0x08029b91   Data           3  dfs_file.o(.constdata)
    __fsym_ls_desc                           0x08029b94   Data          24  dfs_file.o(.constdata)
    __fsym_rm_name                           0x08029bac   Data           3  dfs_file.o(.constdata)
    __fsym_rm_desc                           0x08029baf   Data          28  dfs_file.o(.constdata)
    __fsym_cat_name                          0x08029bcb   Data           4  dfs_file.o(.constdata)
    __fsym_cat_desc                          0x08029bcf   Data          11  dfs_file.o(.constdata)
    __fsym_copy_name                         0x08029bda   Data           5  dfs_file.o(.constdata)
    __fsym_copy_desc                         0x08029bdf   Data          17  dfs_file.o(.constdata)
    __fsym_mkdir_name                        0x08029bf0   Data           6  dfs_posix.o(.constdata)
    __fsym_mkdir_desc                        0x08029bf6   Data          19  dfs_posix.o(.constdata)
    memp_sizes                               0x08029e70   Data          28  memp.o(.constdata)
    tcp_state_str                            0x08029e8c   Data          44  tcp.o(.constdata)
    tcp_backoff                              0x08029eb8   Data          13  tcp.o(.constdata)
    tcp_persist_backoff                      0x08029ec5   Data           7  tcp.o(.constdata)
    tcp_pcb_lists                            0x08029ecc   Data          16  tcp.o(.constdata)
    ip_addr_any                              0x08029fc4   Data           4  ip_addr.o(.constdata)
    ip_addr_broadcast                        0x08029fc8   Data           4  ip_addr.o(.constdata)
    ethbroadcast                             0x0802a014   Data           6  etharp.o(.constdata)
    ethzero                                  0x0802a01a   Data           6  etharp.o(.constdata)
    __fsym_set_if_name                       0x0802a064   Data           7  ethernetif.o(.constdata)
    __fsym_set_if_desc                       0x0802a06b   Data          30  ethernetif.o(.constdata)
    __fsym_set_dns_name                      0x0802a089   Data           8  ethernetif.o(.constdata)
    __fsym_set_dns_desc                      0x0802a091   Data          23  ethernetif.o(.constdata)
    __fsym_list_if_name                      0x0802a0a8   Data           8  ethernetif.o(.constdata)
    __fsym_list_if_desc                      0x0802a0b0   Data          35  ethernetif.o(.constdata)
    __fsym_list_tcps_name                    0x0802a0d3   Data          10  ethernetif.o(.constdata)
    __fsym_list_tcps_desc                    0x0802a0dd   Data          28  ethernetif.o(.constdata)
    _monlen                                  0x0802a180   Data          12  _monlen.o(.constdata)
    __rt_init_rti_start                      0x0802a3e8   Data           4  components.o(.rti_fn.0)
    __rt_init_rti_board_end                  0x0802a3ec   Data           4  components.o(.rti_fn.1.post)
    __rt_init_eth_system_device_init         0x0802a3f0   Data           4  ethernetif.o(.rti_fn.2)
    __rt_init_finsh_system_init              0x0802a3f4   Data           4  shell.o(.rti_fn.3)
    __rt_init_dfs_init                       0x0802a3f8   Data           4  dfs.o(.rti_fn.3)
    __rt_init_lwip_system_init               0x0802a3fc   Data           4  sys_arch.o(.rti_fn.3)
    __rt_init_elm_init                       0x0802a400   Data           4  dfs_elm.o(.rti_fn.4)
    __rt_init_rti_end                        0x0802a404   Data           4  components.o(.rti_fn.7)
    FSymTab$$Base                            0x0802a408   Number         0  board.o(FSymTab)
    __fsym_reset                             0x0802a408   Data          12  board.o(FSymTab)
    __fsym_dp83483                           0x0802a414   Data          12  stm32f4xx_eth.o(FSymTab)
    __fsym_tcpclient                         0x0802a420   Data          12  tcpclient.o(FSymTab)
    __fsym_tcpserv                           0x0802a42c   Data          12  tcpserver.o(FSymTab)
    __fsym_list_mem                          0x0802a438   Data          12  mem.o(FSymTab)
    __fsym_hello                             0x0802a444   Data          12  cmd.o(FSymTab)
    __fsym_version                           0x0802a450   Data          12  cmd.o(FSymTab)
    __fsym_list_thread                       0x0802a45c   Data          12  cmd.o(FSymTab)
    __fsym_list_sem                          0x0802a468   Data          12  cmd.o(FSymTab)
    __fsym_list_event                        0x0802a474   Data          12  cmd.o(FSymTab)
    __fsym_list_mutex                        0x0802a480   Data          12  cmd.o(FSymTab)
    __fsym_list_mailbox                      0x0802a48c   Data          12  cmd.o(FSymTab)
    __fsym_list_msgqueue                     0x0802a498   Data          12  cmd.o(FSymTab)
    __fsym_list_mempool                      0x0802a4a4   Data          12  cmd.o(FSymTab)
    __fsym_list_timer                        0x0802a4b0   Data          12  cmd.o(FSymTab)
    __fsym_list_device                       0x0802a4bc   Data          12  cmd.o(FSymTab)
    __fsym_list                              0x0802a4c8   Data          12  cmd.o(FSymTab)
    __fsym_mkfs                              0x0802a4d4   Data          12  dfs_fs.o(FSymTab)
    __fsym_df                                0x0802a4e0   Data          12  dfs_fs.o(FSymTab)
    __fsym_ls                                0x0802a4ec   Data          12  dfs_file.o(FSymTab)
    __fsym_rm                                0x0802a4f8   Data          12  dfs_file.o(FSymTab)
    __fsym_cat                               0x0802a504   Data          12  dfs_file.o(FSymTab)
    __fsym_copy                              0x0802a510   Data          12  dfs_file.o(FSymTab)
    __fsym_mkdir                             0x0802a51c   Data          12  dfs_posix.o(FSymTab)
    __fsym_set_if                            0x0802a528   Data          12  ethernetif.o(FSymTab)
    __fsym_set_dns                           0x0802a534   Data          12  ethernetif.o(FSymTab)
    __fsym_list_if                           0x0802a540   Data          12  ethernetif.o(FSymTab)
    __fsym_list_tcps                         0x0802a54c   Data          12  ethernetif.o(FSymTab)
    FSymTab$$Limit                           0x0802a558   Number         0  ethernetif.o(FSymTab)
    Region$$Table$$Base                      0x0802a558   Number         0  anon$$obj.o(Region$$Table)
    Region$$Table$$Limit                     0x0802a578   Number         0  anon$$obj.o(Region$$Table)
    VSymTab$$Base                            0x0802a578   Number         0  cmd.o(VSymTab)
    __vsym_dummy                             0x0802a578   Data          16  cmd.o(VSymTab)
    VSymTab$$Limit                           0x0802a588   Number         0  cmd.o(VSymTab)
    __ctype                                  0x0802a595   Data           0  lc_ctype_c.o(locale$$data)
    SystemCoreClock                          0x20000000   Data           4  system_stm32f4xx.o(.data)
    AHBPrescTable                            0x20000004   Data          16  system_stm32f4xx.o(.data)
    uart1                                    0x20000024   Data           8  usart.o(.data)
    DMATxDescToSet                           0x20000038   Data           4  stm32f4xx_eth.o(.data)
    DMARxDescToGet                           0x2000003c   Data           4  stm32f4xx_eth.o(.data)
    DMAPTPTxDescToSet                        0x20000040   Data           4  stm32f4xx_eth.o(.data)
    DMAPTPRxDescToGet                        0x20000044   Data           4  stm32f4xx_eth.o(.data)
    rt_interrupt_nest                        0x20000050   Data           1  irq.o(.data)
    rt_object_container                      0x2000007c   Data         144  object.o(.data)
    rt_object_trytake_hook                   0x20000114   Data           4  object.o(.data)
    rt_object_take_hook                      0x20000118   Data           4  object.o(.data)
    rt_object_put_hook                       0x2000011c   Data           4  object.o(.data)
    rt_current_thread                        0x20000124   Data           4  scheduler.o(.data)
    rt_current_priority                      0x20000128   Data           1  scheduler.o(.data)
    rt_thread_ready_priority_group           0x2000012c   Data           4  scheduler.o(.data)
    rt_thread_defunct                        0x20000130   Data           8  scheduler.o(.data)
    rt_interrupt_from_thread                 0x20000150   Data           4  cpuport.o(.data)
    rt_interrupt_to_thread                   0x20000154   Data           4  cpuport.o(.data)
    rt_thread_switch_interrupt_flag          0x20000158   Data           4  cpuport.o(.data)
    shell                                    0x20000174   Data           4  shell.o(.data)
    _syscall_table_begin                     0x20000178   Data           4  symbol.o(.data)
    _syscall_table_end                       0x2000017c   Data           4  symbol.o(.data)
    _sysvar_table_begin                      0x20000180   Data           4  symbol.o(.data)
    _sysvar_table_end                        0x20000184   Data           4  symbol.o(.data)
    finsh_compile_sp                         0x2000018c   Data           4  finsh_compiler.o(.data)
    finsh_compile_pc                         0x20000190   Data           4  finsh_compiler.o(.data)
    global_errno                             0x200001d0   Data           1  finsh_error.o(.data)
    global_sysvar_list                       0x200001dc   Data           4  finsh_var.o(.data)
    global_syscall_list                      0x200001e0   Data           4  finsh_vm.o(.data)
    finsh_sp                                 0x200001e4   Data           4  finsh_vm.o(.data)
    finsh_pc                                 0x200001e8   Data           4  finsh_vm.o(.data)
    h_errno                                  0x20000210   Data           4  netdb.o(.data)
    netif_list                               0x20000244   Data           4  netif.o(.data)
    netif_default                            0x20000248   Data           4  netif.o(.data)
    pbuf_free_ooseq_pending                  0x2000024d   Data           1  pbuf.o(.data)
    tcp_ticks                                0x2000025c   Data           4  tcp.o(.data)
    tcp_bound_pcbs                           0x20000260   Data           4  tcp.o(.data)
    tcp_listen_pcbs                          0x20000264   Data           4  tcp.o(.data)
    tcp_active_pcbs                          0x20000268   Data           4  tcp.o(.data)
    tcp_tw_pcbs                              0x2000026c   Data           4  tcp.o(.data)
    tcp_tmp_pcb                              0x20000270   Data           4  tcp.o(.data)
    tcp_active_pcbs_changed                  0x20000274   Data           1  tcp.o(.data)
    tcp_input_pcb                            0x20000294   Data           4  tcp_in.o(.data)
    udp_pcbs                                 0x200002a4   Data           4  udp.o(.data)
    current_netif                            0x200002a8   Data           4  ip.o(.data)
    current_header                           0x200002ac   Data           4  ip.o(.data)
    current_iphdr_src                        0x200002b0   Data           4  ip.o(.data)
    current_iphdr_dest                       0x200002b4   Data           4  ip.o(.data)
    uart1_int_rx                             0x200002bc   Data          68  usart.o(.bss)
    serial1                                  0x20000300   Data         124  usart.o(.bss)
    SDIO_InitStructure                       0x2000037c   Data          24  stm32f4xx_sd.o(.bss)
    SDIO_CmdInitStructure                    0x20000394   Data          20  stm32f4xx_sd.o(.bss)
    SDIO_DataInitStructure                   0x200003a8   Data          24  stm32f4xx_sd.o(.bss)
    rt_thread_priority_table                 0x20002de0   Data         256  scheduler.o(.bss)
    finsh_heap                               0x20003c20   Data         128  finsh_heap.o(.bss)
    global_node_table                        0x20003ca0   Data         320  finsh_node.o(.bss)
    global_variable                          0x20003de0   Data         192  finsh_var.o(.bss)
    finsh_vm_stack                           0x20003ea0   Data         256  finsh_vm.o(.bss)
    text_segment                             0x20003fa0   Data         128  finsh_vm.o(.bss)
    filesystem_operation_table               0x20004020   Data          16  dfs.o(.bss)
    filesystem_table                         0x20004030   Data          32  dfs.o(.bss)
    fd_table                                 0x20004074   Data         128  dfs.o(.bss)
    __libspace_start                         0x20004f58   Data          96  libspace.o(.bss)
    __temporary_stack_top$libspace           0x20004fb8   Data           0  libspace.o(.bss)
    Image$$RW_IRAM1$$ZI$$Limit               0x200055b8   Number         0  startup_stm32f4xx.o(STACK)



==============================================================================

Memory Map of the image

  Image Entry point : 0x08000189

  Load Region LR_IROM1 (Base: 0x08000000, Size: 0x0002a954, Max: 0x00080000, ABSOLUTE, COMPRESSED[0x0002a73c])

    Execution Region ER_IROM1 (Base: 0x08000000, Size: 0x0002a698, Max: 0x00080000, ABSOLUTE)

    Base Addr    Size         Type   Attr      Idx    E Section Name        Object

    0x08000000   0x00000188   Data   RO          751    RESET               startup_stm32f4xx.o
    0x08000188   0x00000008   Code   RO         3038  * !!!main             c_w.l(__main.o)
    0x08000190   0x00000034   Code   RO         3216    !!!scatter          c_w.l(__scatter.o)
    0x080001c4   0x0000005a   Code   RO         3214    !!dczerorl2         c_w.l(__dczerorl2.o)
    0x0800021e   0x00000002   PAD
    0x08000220   0x0000001c   Code   RO         3218    !!handler_zi        c_w.l(__scatter_zi.o)
    0x0800023c   0x00000002   Code   RO         3090    .ARM.Collect$$libinit$$00000000  c_w.l(libinit.o)
    0x0800023e   0x00000004   Code   RO         3093    .ARM.Collect$$libinit$$00000001  c_w.l(libinit2.o)
    0x08000242   0x00000000   Code   RO         3097    .ARM.Collect$$libinit$$00000008  c_w.l(libinit2.o)
    0x08000242   0x00000000   Code   RO         3099    .ARM.Collect$$libinit$$0000000A  c_w.l(libinit2.o)
    0x08000242   0x00000000   Code   RO         3101    .ARM.Collect$$libinit$$0000000C  c_w.l(libinit2.o)
    0x08000242   0x00000006   Code   RO         3102    .ARM.Collect$$libinit$$0000000D  c_w.l(libinit2.o)
    0x08000248   0x00000000   Code   RO         3104    .ARM.Collect$$libinit$$0000000F  c_w.l(libinit2.o)
    0x08000248   0x0000000c   Code   RO         3105    .ARM.Collect$$libinit$$00000010  c_w.l(libinit2.o)
    0x08000254   0x00000000   Code   RO         3106    .ARM.Collect$$libinit$$00000011  c_w.l(libinit2.o)
    0x08000254   0x00000000   Code   RO         3108    .ARM.Collect$$libinit$$00000013  c_w.l(libinit2.o)
    0x08000254   0x00000000   Code   RO         3110    .ARM.Collect$$libinit$$00000015  c_w.l(libinit2.o)
    0x08000254   0x00000000   Code   RO         3112    .ARM.Collect$$libinit$$00000017  c_w.l(libinit2.o)
    0x08000254   0x00000000   Code   RO         3114    .ARM.Collect$$libinit$$00000019  c_w.l(libinit2.o)
    0x08000254   0x00000000   Code   RO         3116    .ARM.Collect$$libinit$$0000001B  c_w.l(libinit2.o)
    0x08000254   0x00000000   Code   RO         3118    .ARM.Collect$$libinit$$0000001D  c_w.l(libinit2.o)
    0x08000254   0x00000000   Code   RO         3120    .ARM.Collect$$libinit$$0000001F  c_w.l(libinit2.o)
    0x08000254   0x00000000   Code   RO         3122    .ARM.Collect$$libinit$$00000021  c_w.l(libinit2.o)
    0x08000254   0x00000000   Code   RO         3124    .ARM.Collect$$libinit$$00000023  c_w.l(libinit2.o)
    0x08000254   0x00000000   Code   RO         3128    .ARM.Collect$$libinit$$0000002A  c_w.l(libinit2.o)
    0x08000254   0x00000000   Code   RO         3130    .ARM.Collect$$libinit$$0000002C  c_w.l(libinit2.o)
    0x08000254   0x00000000   Code   RO         3132    .ARM.Collect$$libinit$$0000002E  c_w.l(libinit2.o)
    0x08000254   0x00000000   Code   RO         3134    .ARM.Collect$$libinit$$00000030  c_w.l(libinit2.o)
    0x08000254   0x00000002   Code   RO         3135    .ARM.Collect$$libinit$$00000031  c_w.l(libinit2.o)
    0x08000256   0x00000002   Code   RO         3155    .ARM.Collect$$libshutdown$$00000000  c_w.l(libshutdown.o)
    0x08000258   0x00000000   Code   RO         3169    .ARM.Collect$$libshutdown$$00000003  c_w.l(libshutdown2.o)
    0x08000258   0x00000000   Code   RO         3172    .ARM.Collect$$libshutdown$$00000006  c_w.l(libshutdown2.o)
    0x08000258   0x00000000   Code   RO         3175    .ARM.Collect$$libshutdown$$00000009  c_w.l(libshutdown2.o)
    0x08000258   0x00000000   Code   RO         3177    .ARM.Collect$$libshutdown$$0000000B  c_w.l(libshutdown2.o)
    0x08000258   0x00000000   Code   RO         3180    .ARM.Collect$$libshutdown$$0000000E  c_w.l(libshutdown2.o)
    0x08000258   0x00000002   Code   RO         3181    .ARM.Collect$$libshutdown$$0000000F  c_w.l(libshutdown2.o)
    0x0800025a   0x00000000   Code   RO         3040    .ARM.Collect$$rtentry$$00000000  c_w.l(rtentry.o)
    0x0800025a   0x00000000   Code   RO         3053    .ARM.Collect$$rtentry$$00000002  c_w.l(rtentry2.o)
    0x0800025a   0x00000006   Code   RO         3065    .ARM.Collect$$rtentry$$00000004  c_w.l(rtentry4.o)
    0x08000260   0x00000000   Code   RO         3055    .ARM.Collect$$rtentry$$00000009  c_w.l(rtentry2.o)
    0x08000260   0x00000004   Code   RO         3056    .ARM.Collect$$rtentry$$0000000A  c_w.l(rtentry2.o)
    0x08000264   0x00000000   Code   RO         3058    .ARM.Collect$$rtentry$$0000000C  c_w.l(rtentry2.o)
    0x08000264   0x00000008   Code   RO         3059    .ARM.Collect$$rtentry$$0000000D  c_w.l(rtentry2.o)
    0x0800026c   0x00000002   Code   RO         3091    .ARM.Collect$$rtexit$$00000000  c_w.l(rtexit.o)
    0x0800026e   0x00000000   Code   RO         3137    .ARM.Collect$$rtexit$$00000002  c_w.l(rtexit2.o)
    0x0800026e   0x00000004   Code   RO         3138    .ARM.Collect$$rtexit$$00000003  c_w.l(rtexit2.o)
    0x08000272   0x00000006   Code   RO         3139    .ARM.Collect$$rtexit$$00000004  c_w.l(rtexit2.o)
    0x08000278   0x0000020c   Code   RO            2    .text               system_stm32f4xx.o
    0x08000484   0x000001fc   Code   RO          127    .text               misc.o
    0x08000680   0x00001358   Code   RO          410    .text               stm32f4xx_dma.o
    0x080019d8   0x000002d4   Code   RO          427    .text               stm32f4xx_exti.o
    0x08001cac   0x000008c8   Code   RO          478    .text               stm32f4xx_gpio.o
    0x08002574   0x00000cfc   Code   RO          595    .text               stm32f4xx_rcc.o
    0x08003270   0x00000624   Code   RO          648    .text               stm32f4xx_sdio.o
    0x08003894   0x0000014c   Code   RO          682    .text               stm32f4xx_syscfg.o
    0x080039e0   0x00000e20   Code   RO          716    .text               stm32f4xx_usart.o
    0x08004800   0x00000040   Code   RO          752    .text               startup_stm32f4xx.o
    0x08004840   0x000003ac   Code   RO          757    .text               board.o
    0x08004bec   0x00000020   Code   RO          919    .text               platform.o
    0x08004c0c   0x00000338   Code   RO          939    .text               usart.o
    0x08004f44   0x00000070   Code   RO         1010    .text               stm32f4xx_it.o
    0x08004fb4   0x000006e4   Code   RO         1047    .text               stm32f4xx_sd.o
    0x08005698   0x00002764   Code   RO         1071    .text               stm32f4xx_eth.o
    0x08007dfc   0x000000ac   Code   RO         1142    .text               application.o
    0x08007ea8   0x000000d0   Code   RO         1237    .text               startup.o
    0x08007f78   0x00000158   Code   RO         1253    .text               tcpclient.o
    0x080080d0   0x0000021c   Code   RO         1286    .text               tcpserver.o
    0x080082ec   0x00000064   Code   RO         1305    .text               clock.o
    0x08008350   0x00000438   Code   RO         1319    .text               device.o
    0x08008788   0x00000168   Code   RO         1333    .text               idle.o
    0x080088f0   0x00001af8   Code   RO         1353    .text               ipc.o
    0x0800a3e8   0x00000048   Code   RO         1370    .text               irq.o
    0x0800a430   0x000009b0   Code   RO         1385    .text               kservice.o
    0x0800ade0   0x000009b0   Code   RO         1402    .text               mem.o
    0x0800b790   0x00000348   Code   RO         1438    .text               object.o
    0x0800bad8   0x00000334   Code   RO         1458    .text               scheduler.o
    0x0800be0c   0x000006b8   Code   RO         1479    .text               thread.o
    0x0800c4c4   0x00000560   Code   RO         1496    .text               timer.o
    0x0800ca24   0x000001c0   Code   RO         1515    .text               cpuport.o
    0x0800cbe4   0x00000110   Code   RO         1531    .text               context_rvds.o
    0x0800ccf4   0x000006b4   Code   RO         1569    .text               block_dev.o
    0x0800d3a8   0x0000088c   Code   RO         1586    .text               mmcsd_core.o
    0x0800dc34   0x00000a28   Code   RO         1610    .text               sd.o
    0x0800e65c   0x000017c8   Code   RO         1633    .text               sdio.o
    0x0800fe24   0x000005e8   Code   RO         1651    .text               serial.o
    0x0801040c   0x000004c4   Code   RO         1680    .text               dataqueue.o
    0x080108d0   0x000009f4   Code   RO         1753    .text               shell.o
    0x080112c4   0x00000b90   Code   RO         1785    .text               cmd.o
    0x08011e54   0x00001818   Code   RO         1808    .text               finsh_compiler.o
    0x0801366c   0x0000002c   Code   RO         1845    .text               finsh_error.o
    0x08013698   0x00000210   Code   RO         1861    .text               finsh_heap.o
    0x080138a8   0x00000058   Code   RO         1877    .text               finsh_init.o
    0x08013900   0x00000184   Code   RO         1895    .text               finsh_node.o
    0x08013a84   0x00000adc   Code   RO         1910    .text               finsh_ops.o
    0x08014560   0x0000097c   Code   RO         1928    .text               finsh_parser.o
    0x08014edc   0x00000198   Code   RO         1943    .text               finsh_var.o
    0x08015074   0x000000e4   Code   RO         1966    .text               finsh_vm.o
    0x08015158   0x0000063c   Code   RO         1993    .text               finsh_token.o
    0x08015794   0x000003fc   Code   RO         2008    .text               dfs.o
    0x08015b90   0x000005ec   Code   RO         2042    .text               dfs_fs.o
    0x0801617c   0x0000098c   Code   RO         2058    .text               dfs_file.o
    0x08016b08   0x00000550   Code   RO         2078    .text               dfs_posix.o
    0x08017058   0x00000b54   Code   RO         2097    .text               dfs_elm.o
    0x08017bac   0x00002500   Code   RO         2130    .text               ff.o
    0x0801a0ac   0x00000cbc   Code   RO         2145    .text               api_lib.o
    0x0801ad68   0x00001870   Code   RO         2221    .text               api_msg.o
    0x0801c5d8   0x000003b0   Code   RO         2276    .text               netbuf.o
    0x0801c988   0x000002bc   Code   RO         2291    .text               netdb.o
    0x0801cc44   0x000000f8   Code   RO         2328    .text               netifapi.o
    0x0801cd3c   0x00001c4c   Code   RO         2358    .text               sockets.o
    0x0801e988   0x000003e4   Code   RO         2400    .text               tcpip.o
    0x0801ed6c   0x0000085c   Code   RO         2450    .text               sys_arch.o
    0x0801f5c8   0x0000003e   Code   RO         2496    .text               def.o
    0x0801f606   0x00000002   PAD
    0x0801f608   0x0000074c   Code   RO         2514    .text               dns.o
    0x0801fd54   0x00000020   Code   RO         2533    .text               init.o
    0x0801fd74   0x000002e4   Code   RO         2618    .text               netif.o
    0x08020058   0x00000fdc   Code   RO         2654    .text               pbuf.o
    0x08021034   0x0000022c   Code   RO         2681    .text               raw.o
    0x08021260   0x000014cc   Code   RO         2713    .text               tcp.o
    0x0802272c   0x00001ce0   Code   RO         2740    .text               tcp_in.o
    0x0802440c   0x000011ec   Code   RO         2766    .text               tcp_out.o
    0x080255f8   0x000002c4   Code   RO         2779    .text               timers.o
    0x080258bc   0x00000550   Code   RO         2805    .text               udp.o
    0x08025e0c   0x000003a4   Code   RO         2829    .text               icmp.o
    0x080261b0   0x00000250   Code   RO         2854    .text               inet_chksum.o
    0x08026400   0x00000388   Code   RO         2867    .text               ip.o
    0x08026788   0x000002d4   Code   RO         2891    .text               ip_addr.o
    0x08026a5c   0x00000e94   Code   RO         2920    .text               etharp.o
    0x080278f0   0x000009cc   Code   RO         2940    .text               ethernetif.o
    0x080282bc   0x00000040   Code   RO         2987    .text               components.o
    0x080282fc   0x0000001a   Code   RO         3010    .text               c_w.l(atoi.o)
    0x08028316   0x00000058   Code   RO         3012    .text               c_w.l(memcmp.o)
    0x0802836e   0x00000048   Code   RO         3014    .text               c_w.l(strcpy.o)
    0x080283b6   0x00000016   Code   RO         3016    .text               c_w.l(strrchr.o)
    0x080283cc   0x0000003e   Code   RO         3018    .text               c_w.l(strlen.o)
    0x0802840a   0x00000096   Code   RO         3020    .text               c_w.l(strncmp.o)
    0x080284a0   0x0000008a   Code   RO         3022    .text               c_w.l(rt_memcpy_v6.o)
    0x0802852a   0x00000064   Code   RO         3024    .text               c_w.l(rt_memcpy_w.o)
    0x0802858e   0x00000044   Code   RO         3026    .text               c_w.l(rt_memclr.o)
    0x080285d2   0x0000004e   Code   RO         3028    .text               c_w.l(rt_memclr_w.o)
    0x08028620   0x00000056   Code   RO         3030    .text               c_w.l(strncpy.o)
    0x08028676   0x00000002   PAD
    0x08028678   0x00000080   Code   RO         3032    .text               c_w.l(strcmpv7m.o)
    0x080286f8   0x000001a4   Code   RO         3034    .text               c_w.l(mktime.o)
    0x0802889c   0x00000006   Code   RO         3036    .text               c_w.l(heapauxi.o)
    0x080288a2   0x00000002   PAD
    0x080288a4   0x00000008   Code   RO         3044    .text               c_w.l(rt_errno_addr_intlibspace.o)
    0x080288ac   0x00000070   Code   RO         3046    .text               c_w.l(strtol.o)
    0x0802891c   0x00000008   Code   RO         3049    .text               c_w.l(libspace.o)
    0x08028924   0x00000010   Code   RO         3067    .text               c_w.l(rt_ctype_table.o)
    0x08028934   0x0000009e   Code   RO         3069    .text               c_w.l(_strtoul.o)
    0x080289d2   0x0000004a   Code   RO         3071    .text               c_w.l(sys_stackheap_outer.o)
    0x08028a1c   0x00000008   Code   RO         3076    .text               c_w.l(rt_locale_intlibspace.o)
    0x08028a24   0x0000001c   Code   RO         3078    .text               c_w.l(_chval.o)
    0x08028a40   0x0000000c   Code   RO         3083    .text               c_w.l(exit.o)
    0x08028a4c   0x0000000c   Code   RO         3147    .text               c_w.l(sys_exit.o)
    0x08028a58   0x00000002   Code   RO         3158    .text               c_w.l(use_no_semi.o)
    0x08028a5a   0x00000000   Code   RO         3160    .text               c_w.l(indicate_semi.o)
    0x08028a5a   0x00000002   PAD
    0x08028a5c   0x0000002c   Code   RO         3081    locale$$code        c_w.l(lc_ctype_c.o)
    0x08028a88   0x0000000a   Code   RO         3145    x$fpl$fpinit        fz_wm.l(fpinit.o)
    0x08028a92   0x00000002   PAD
    0x08028a94   0x00000048   Data   RO          411    .constdata          stm32f4xx_dma.o
    0x08028adc   0x00000048   Data   RO          428    .constdata          stm32f4xx_exti.o
    0x08028b24   0x00000048   Data   RO          479    .constdata          stm32f4xx_gpio.o
    0x08028b6c   0x00000048   Data   RO          596    .constdata          stm32f4xx_rcc.o
    0x08028bb4   0x00000048   Data   RO          649    .constdata          stm32f4xx_sdio.o
    0x08028bfc   0x0000004c   Data   RO          683    .constdata          stm32f4xx_syscfg.o
    0x08028c48   0x00000048   Data   RO          717    .constdata          stm32f4xx_usart.o
    0x08028c90   0x0000000c   Data   RO          758    .constdata          board.o
    0x08028c9c   0x00000048   Data   RO          941    .constdata          usart.o
    0x08028ce4   0x00000010   Data   RO         1049    .constdata          stm32f4xx_sd.o
    0x08028cf4   0x0000001b   Data   RO         1073    .constdata          stm32f4xx_eth.o
    0x08028d0f   0x00000040   Data   RO         1254    .constdata          tcpclient.o
    0x08028d4f   0x00000001   PAD
    0x08028d50   0x0000003e   Data   RO         1287    .constdata          tcpserver.o
    0x08028d8e   0x000000a8   Data   RO         1320    .constdata          device.o
    0x08028e36   0x00000016   Data   RO         1335    .constdata          idle.o
    0x08028e4c   0x000001d7   Data   RO         1354    .constdata          ipc.o
    0x08029023   0x00000122   Data   RO         1387    .constdata          kservice.o
    0x08029145   0x00000003   PAD
    0x08029148   0x00000160   Data   RO         1404    .constdata          mem.o
    0x080292a8   0x0000005e   Data   RO         1439    .constdata          object.o
    0x08029306   0x0000004e   Data   RO         1460    .constdata          scheduler.o
    0x08029354   0x000000aa   Data   RO         1480    .constdata          thread.o
    0x080293fe   0x0000005c   Data   RO         1497    .constdata          timer.o
    0x0802945a   0x00000013   Data   RO         1516    .constdata          cpuport.o
    0x0802946d   0x00000013   Data   RO         1588    .constdata          mmcsd_core.o
    0x08029480   0x000000c0   Data   RO         1611    .constdata          sd.o
    0x08029540   0x0000011d   Data   RO         1634    .constdata          sdio.o
    0x0802965d   0x00000086   Data   RO         1652    .constdata          serial.o
    0x080296e3   0x0000004b   Data   RO         1681    .constdata          dataqueue.o
    0x0802972e   0x00000060   Data   RO         1755    .constdata          shell.o
    0x0802978e   0x00000002   PAD
    0x08029790   0x00000293   Data   RO         1786    .constdata          cmd.o
    0x08029a23   0x00000001   PAD
    0x08029a24   0x000000c4   Data   RO         1911    .constdata          finsh_ops.o
    0x08029ae8   0x00000040   Data   RO         1994    .constdata          finsh_token.o
    0x08029b28   0x00000023   Data   RO         2010    .constdata          dfs.o
    0x08029b4b   0x00000046   Data   RO         2043    .constdata          dfs_fs.o
    0x08029b91   0x0000005f   Data   RO         2060    .constdata          dfs_file.o
    0x08029bf0   0x00000019   Data   RO         2079    .constdata          dfs_posix.o
    0x08029c09   0x00000003   PAD
    0x08029c0c   0x000000ff   Data   RO         2098    .constdata          dfs_elm.o
    0x08029d0b   0x00000001   PAD
    0x08029d0c   0x0000002c   Data   RO         2131    .constdata          ff.o
    0x08029d38   0x00000040   Data   RO         2360    .constdata          sockets.o
    0x08029d78   0x000000f8   Data   RO         2451    .constdata          sys_arch.o
    0x08029e70   0x0000001c   Data   RO         2585    .constdata          memp.o
    0x08029e8c   0x00000050   Data   RO         2714    .constdata          tcp.o
    0x08029edc   0x00000055   Data   RO         2767    .constdata          tcp_out.o
    0x08029f31   0x00000003   PAD
    0x08029f34   0x00000044   Data   RO         2830    .constdata          icmp.o
    0x08029f78   0x00000049   Data   RO         2855    .constdata          inet_chksum.o
    0x08029fc1   0x00000003   PAD
    0x08029fc4   0x0000004d   Data   RO         2893    .constdata          ip_addr.o
    0x0802a011   0x00000003   PAD
    0x0802a014   0x00000050   Data   RO         2922    .constdata          etharp.o
    0x0802a064   0x0000011c   Data   RO         2942    .constdata          ethernetif.o
    0x0802a180   0x0000000c   Data   RO         3048    .constdata          c_w.l(_monlen.o)
    0x0802a18c   0x000000e9   Data   RO         1787    .conststring        cmd.o
    0x0802a275   0x000000d8   Data   RO         1846    .conststring        finsh_error.o
    0x0802a34d   0x0000002c   Data   RO         1995    .conststring        finsh_token.o
    0x0802a379   0x00000004   Data   RO         2099    .conststring        dfs_elm.o
    0x0802a37d   0x00000068   Data   RO         2715    .conststring        tcp.o
    0x0802a3e5   0x00000003   PAD
    0x0802a3e8   0x00000004   Data   RO         2988    .rti_fn.0           components.o
    0x0802a3ec   0x00000004   Data   RO         2989    .rti_fn.1.post      components.o
    0x0802a3f0   0x00000004   Data   RO         2943    .rti_fn.2           ethernetif.o
    0x0802a3f4   0x00000004   Data   RO         1757    .rti_fn.3           shell.o
    0x0802a3f8   0x00000004   Data   RO         2011    .rti_fn.3           dfs.o
    0x0802a3fc   0x00000004   Data   RO         2453    .rti_fn.3           sys_arch.o
    0x0802a400   0x00000004   Data   RO         2101    .rti_fn.4           dfs_elm.o
    0x0802a404   0x00000004   Data   RO         2990    .rti_fn.7           components.o
    0x0802a408   0x0000000c   Data   RO          759    FSymTab             board.o
    0x0802a414   0x0000000c   Data   RO         1075    FSymTab             stm32f4xx_eth.o
    0x0802a420   0x0000000c   Data   RO         1255    FSymTab             tcpclient.o
    0x0802a42c   0x0000000c   Data   RO         1288    FSymTab             tcpserver.o
    0x0802a438   0x0000000c   Data   RO         1406    FSymTab             mem.o
    0x0802a444   0x00000090   Data   RO         1789    FSymTab             cmd.o
    0x0802a4d4   0x00000018   Data   RO         2044    FSymTab             dfs_fs.o
    0x0802a4ec   0x00000030   Data   RO         2061    FSymTab             dfs_file.o
    0x0802a51c   0x0000000c   Data   RO         2080    FSymTab             dfs_posix.o
    0x0802a528   0x00000030   Data   RO         2944    FSymTab             ethernetif.o
    0x0802a558   0x00000020   Data   RO         3212    Region$$Table       anon$$obj.o
    0x0802a578   0x00000010   Data   RO         1790    VSymTab             cmd.o
    0x0802a588   0x00000110   Data   RO         3080    locale$$data        c_w.l(lc_ctype_c.o)


    Execution Region RW_IRAM1 (Base: 0x20000000, Size: 0x000055b8, Max: 0x00020000, ABSOLUTE, COMPRESSED[0x000000a4])

    Base Addr    Size         Type   Attr      Idx    E Section Name        Object

    0x20000000   0x00000014   Data   RW            3    .data               system_stm32f4xx.o
    0x20000014   0x00000010   Data   RW          597    .data               stm32f4xx_rcc.o
    0x20000024   0x00000008   Data   RW          942    .data               usart.o
    0x2000002c   0x00000004   Data   RW         1050    .data               stm32f4xx_sd.o
    0x20000030   0x00000018   Data   RW         1074    .data               stm32f4xx_eth.o
    0x20000048   0x00000004   Data   RW         1306    .data               clock.o
    0x2000004c   0x00000004   Data   RW         1336    .data               idle.o
    0x20000050   0x00000001   Data   RW         1371    .data               irq.o
    0x20000051   0x00000003   PAD
    0x20000054   0x00000008   Data   RW         1388    .data               kservice.o
    0x2000005c   0x00000020   Data   RW         1405    .data               mem.o
    0x2000007c   0x000000a4   Data   RW         1440    .data               object.o
    0x20000120   0x0000001c   Data   RW         1461    .data               scheduler.o
    0x2000013c   0x00000010   Data   RW         1498    .data               timer.o
    0x2000014c   0x00000010   Data   RW         1517    .data               cpuport.o
    0x2000015c   0x00000008   Data   RW         1570    .data               block_dev.o
    0x20000164   0x00000010   Data   RW         1635    .data               sdio.o
    0x20000174   0x00000004   Data   RW         1756    .data               shell.o
    0x20000178   0x00000010   Data   RW         1772    .data               symbol.o
    0x20000188   0x00000004   Data   RW         1788    .data               cmd.o
    0x2000018c   0x00000008   Data   RW         1809    .data               finsh_compiler.o
    0x20000194   0x0000003d   Data   RW         1847    .data               finsh_error.o
    0x200001d1   0x00000003   PAD
    0x200001d4   0x00000008   Data   RW         1863    .data               finsh_heap.o
    0x200001dc   0x00000004   Data   RW         1945    .data               finsh_var.o
    0x200001e0   0x0000000c   Data   RW         1968    .data               finsh_vm.o
    0x200001ec   0x00000008   Data   RW         2100    .data               dfs_elm.o
    0x200001f4   0x0000000a   Data   RW         2132    .data               ff.o
    0x200001fe   0x00000002   PAD
    0x20000200   0x00000014   Data   RW         2293    .data               netdb.o
    0x20000214   0x00000008   Data   RW         2361    .data               sockets.o
    0x2000021c   0x0000000c   Data   RW         2401    .data               tcpip.o
    0x20000228   0x00000006   Data   RW         2452    .data               sys_arch.o
    0x2000022e   0x00000002   PAD
    0x20000230   0x00000014   Data   RW         2516    .data               dns.o
    0x20000244   0x00000009   Data   RW         2619    .data               netif.o
    0x2000024d   0x00000001   Data   RW         2655    .data               pbuf.o
    0x2000024e   0x00000002   PAD
    0x20000250   0x00000004   Data   RW         2682    .data               raw.o
    0x20000254   0x00000023   Data   RW         2716    .data               tcp.o
    0x20000277   0x00000001   PAD
    0x20000278   0x00000020   Data   RW         2742    .data               tcp_in.o
    0x20000298   0x00000008   Data   RW         2780    .data               timers.o
    0x200002a0   0x00000008   Data   RW         2806    .data               udp.o
    0x200002a8   0x00000012   Data   RW         2868    .data               ip.o
    0x200002ba   0x00000001   Data   RW         2923    .data               etharp.o
    0x200002bb   0x00000001   PAD
    0x200002bc   0x000000c0   Zero   RW          940    .bss                usart.o
    0x2000037c   0x00000044   Zero   RW         1048    .bss                stm32f4xx_sd.o
    0x200003c0   0x00002500   Zero   RW         1072    .bss                stm32f4xx_eth.o
    0x200028c0   0x00000480   Zero   RW         1334    .bss                idle.o
    0x20002d40   0x00000080   Zero   RW         1386    .bss                kservice.o
    0x20002dc0   0x00000020   Zero   RW         1403    .bss                mem.o
    0x20002de0   0x00000100   Zero   RW         1459    .bss                scheduler.o
    0x20002ee0   0x000004c0   Zero   RW         1587    .bss                mmcsd_core.o
    0x200033a0   0x00000880   Zero   RW         1754    .bss                shell.o
    0x20003c20   0x00000080   Zero   RW         1862    .bss                finsh_heap.o
    0x20003ca0   0x00000140   Zero   RW         1896    .bss                finsh_node.o
    0x20003de0   0x000000c0   Zero   RW         1944    .bss                finsh_var.o
    0x20003ea0   0x00000180   Zero   RW         1967    .bss                finsh_vm.o
    0x20004020   0x000000d4   Zero   RW         2009    .bss                dfs.o
    0x200040f4   0x00000124   Zero   RW         2059    .bss                dfs_file.o
    0x20004218   0x00000014   Zero   RW         2292    .bss                netdb.o
    0x2000422c   0x00000060   Zero   RW         2359    .bss                sockets.o
    0x2000428c   0x00000663   Zero   RW         2515    .bss                dns.o
    0x200048ef   0x00000001   PAD
    0x200048f0   0x00000010   Zero   RW         2741    .bss                tcp_in.o
    0x20004900   0x00000010   Zero   RW         2892    .bss                ip_addr.o
    0x20004910   0x000000c8   Zero   RW         2921    .bss                etharp.o
    0x200049d8   0x00000580   Zero   RW         2941    .bss                ethernetif.o
    0x20004f58   0x00000060   Zero   RW         3050    .bss                c_w.l(libspace.o)
    0x20004fb8   0x00000200   Zero   RW          750    HEAP                startup_stm32f4xx.o
    0x200051b8   0x00000400   Zero   RW          749    STACK               startup_stm32f4xx.o


==============================================================================

Image component sizes


      Code (inc. data)   RO Data    RW Data    ZI Data      Debug   Object Name

      3260        878          0          0          0      26446   api_lib.o
      6256       1268          0          0          0      22123   api_msg.o
       172         84          0          0          0       9546   application.o
      1716        326          0          8          0       6655   block_dev.o
       940         46         24          0          0     291308   board.o
       100          6          0          4          0       1520   clock.o
      2960       1194       1052          4          0      10279   cmd.o
        64         12         12          0          0       1634   components.o
       272         24          0          0          0        792   context_rvds.o
       448        220         19         16          0       3663   cpuport.o
      1220        144         75          0          0       6301   dataqueue.o
        62          0          0          0          0       1230   def.o
      1080        166        168          0          0       5117   device.o
      1020        160         39          0        212       8567   dfs.o
      2900        262        263          8          0      17198   dfs_elm.o
      2444        324        143          0        292       8603   dfs_file.o
      1516        284         94          0          0       5368   dfs_fs.o
      1360         48         37          0          0       8587   dfs_posix.o
      1868        272          0         20       1635       7944   dns.o
      3732        614         80          1        200      10399   etharp.o
      2508        768        336          0       1408      21262   ethernetif.o
      9472        138         44         10          0      24649   ff.o
      6168        154          0          8          0      10574   finsh_compiler.o
        44         10        216         61          0       1617   finsh_error.o
       528         18          0          8        128       3307   finsh_heap.o
        88          6          0          0          0       1596   finsh_init.o
       388          4          0          0        320       3304   finsh_node.o
      2780         36        196          0          0       8760   finsh_ops.o
      2428         32          0          0          0       9461   finsh_parser.o
      1596         16        108          0          0       5748   finsh_token.o
       408         16          0          4        192       7065   finsh_var.o
       228         34          0         12        384       6710   finsh_vm.o
       932        292         68          0          0       2467   icmp.o
       360        104         22          4       1152       2751   idle.o
       592         18         73          0          0       3069   inet_chksum.o
        32          0          0          0          0      15152   init.o
       904        154          0         18          0       6291   ip.o
       724         26         77          0         16       9539   ip_addr.o
      6904        466        471          0          0      21267   ipc.o
        72          6          0          1          0       1326   irq.o
      2480        170        290          8        128      10920   kservice.o
      2480        586        364         32         32       5887   mem.o
         0          0         28          0          0       1185   memp.o
       508         88          0          0          0     260885   misc.o
      2188        234         19          0       1216      16584   mmcsd_core.o
       944        328          0          0          0       4109   netbuf.o
       700        146          0         20         20       9963   netdb.o
       740        110          0          9          0      15538   netif.o
       248          0          0          0          0       4069   netifapi.o
       840        184         94        164          0       5768   object.o
      4060       1164          0          1          0       9995   pbuf.o
        32          0          0          0          0        463   platform.o
       556        118          0          4          0       3469   raw.o
         0          0          0          0          0        376   ringbuffer.o
       820        180         78         28        256       4725   scheduler.o
      2600        208        192          0          0      14493   sd.o
      6088        906        285         16          0      21018   sdio.o
      1512        212        134          0          0       5769   serial.o
      2548        308        100          4       2176       5263   shell.o
      7244        644         64          8         96      29689   sockets.o
       208         98          0          0          0       1231   startup.o
        64         26        392          0       1536        900   startup_stm32f4xx.o
      4952        310         72          0          0       8697   stm32f4xx_dma.o
     10084        450         39         24       9472      83367   stm32f4xx_eth.o
       724         14         72          0          0       2767   stm32f4xx_exti.o
      2248         86         72          0          0       5257   stm32f4xx_gpio.o
       112          0          0          0          0       1326   stm32f4xx_it.o
      3324        218         72         16          0      12951   stm32f4xx_rcc.o
      1764        158         16          4         68       5701   stm32f4xx_sd.o
      1572         52         72          0          0       8288   stm32f4xx_sdio.o
       332         16         76          0          0       1835   stm32f4xx_syscfg.o
      3616        118         72          0          0       9624   stm32f4xx_usart.o
         0          0          0         16          0       4105   symbol.o
      2140        356        252          6          0      12640   sys_arch.o
       524         44          0         20          0       6295   system_stm32f4xx.o
      5324       1112        184         35          0      22128   tcp.o
      7392       1044          0         32         16      16311   tcp_in.o
      4588        848         85          0          0       9787   tcp_out.o
       344         96         76          0          0      12789   tcpclient.o
       996        178          0         12          0      17266   tcpip.o
       540        204         74          0          0       5763   tcpserver.o
      1720        246        170          0          0       7738   thread.o
      1376        150         92         16          0       7389   timer.o
       708        162          0          8          0       4311   timers.o
      1360        186          0          8          0       7186   udp.o
       824        118         72          8        192      33497   usart.o

    ----------------------------------------------------------------------
    163972      20506       7280        700      21148    1358512   Object Totals
         0          0         32          0          0          0   (incl. Generated)
         2          0         23         14          1          0   (incl. Padding)

    ----------------------------------------------------------------------

      Code (inc. data)   RO Data    RW Data    ZI Data      Debug   Library Member Name

        90          0          0          0          0          0   __dczerorl2.o
         8          0          0          0          0         68   __main.o
        52          8          0          0          0          0   __scatter.o
        28          0          0          0          0          0   __scatter_zi.o
        28          0          0          0          0         68   _chval.o
         0          0         12          0          0          0   _monlen.o
       158          0          0          0          0         92   _strtoul.o
        26          0          0          0          0         80   atoi.o
        12          0          0          0          0         72   exit.o
         6          0          0          0          0        152   heapauxi.o
         0          0          0          0          0          0   indicate_semi.o
        44         10        272          0          0         76   lc_ctype_c.o
         2          0          0          0          0          0   libinit.o
        24          0          0          0          0          0   libinit2.o
         2          0          0          0          0          0   libshutdown.o
         2          0          0          0          0          0   libshutdown2.o
         8          4          0          0         96         68   libspace.o
        88          0          0          0          0         76   memcmp.o
       420          8          0          0          0        128   mktime.o
        16          4          0          0          0         76   rt_ctype_table.o
         8          4          0          0          0         68   rt_errno_addr_intlibspace.o
         8          4          0          0          0         68   rt_locale_intlibspace.o
        68          0          0          0          0         68   rt_memclr.o
        78          0          0          0          0         80   rt_memclr_w.o
       138          0          0          0          0         68   rt_memcpy_v6.o
       100          0          0          0          0         80   rt_memcpy_w.o
         0          0          0          0          0          0   rtentry.o
        12          0          0          0          0          0   rtentry2.o
         6          0          0          0          0          0   rtentry4.o
         2          0          0          0          0          0   rtexit.o
        10          0          0          0          0          0   rtexit2.o
       128          0          0          0          0         68   strcmpv7m.o
        72          0          0          0          0         80   strcpy.o
        62          0          0          0          0         76   strlen.o
       150          0          0          0          0         80   strncmp.o
        86          0          0          0          0         76   strncpy.o
        22          0          0          0          0         68   strrchr.o
       112          0          0          0          0         88   strtol.o
        12          4          0          0          0         68   sys_exit.o
        74          0          0          0          0         80   sys_stackheap_outer.o
         2          0          0          0          0         68   use_no_semi.o
        10          0          0          0          0        116   fpinit.o

    ----------------------------------------------------------------------
      2184         46        284          0         96       2256   Library Totals
        10          0          0          0          0          0   (incl. Padding)

    ----------------------------------------------------------------------

      Code (inc. data)   RO Data    RW Data    ZI Data      Debug   Library Name

      2164         46        284          0         96       2140   c_w.l
        10          0          0          0          0        116   fz_wm.l

    ----------------------------------------------------------------------
      2184         46        284          0         96       2256   Library Totals

    ----------------------------------------------------------------------

==============================================================================


      Code (inc. data)   RO Data    RW Data    ZI Data      Debug   

    166156      20552       7564        700      21244    1344568   Grand Totals
    166156      20552       7564        164      21244    1344568   ELF Image Totals (compressed)
    166156      20552       7564        164          0          0   ROM Totals

==============================================================================

    Total RO  Size (Code + RO Data)               173720 ( 169.65kB)
    Total RW  Size (RW Data + ZI Data)             21944 (  21.43kB)
    Total ROM Size (Code + RO Data + RW Data)     173884 ( 169.81kB)

==============================================================================

